ccollections
defaultdict
p0
(c__builtin__
list
p1
tp2
Rp3
I1
c__builtin__
set
p4
((lp5
I128000000
aI120000000
aI135000000
aI140750000
aI174000000
aI46250000
aI132500000
aI138250000
aI141000000
aI124500000
aI48750000
aI89750000
aI130000000
aI122750000
aI135750000
aI121750000
aI173500000
aI141500000
aI127500000
aI121000000
aI41500000
aI133250000
aI179250000
aI139000000
aI131250000
aI111250000
aI111000000
aI130750000
aI136500000
aI125500000
aI126250000
aI155000000
aI142250000
aI249250000
aI181750000
aI53000000
aI123750000
aI134000000
aI32750000
aI52500000
aI139750000
aI50000000
aI119000000
aI131500000
aI137250000
aI128250000
aI129000000
aI134750000
aI126500000
aI127750000
aI191000000
aI112250000
aI140500000
aI28750000
aI132250000
aI138000000
aI225250000
aI123000000
aI28500000
aI197250000
aI129750000
aI135500000
aI113250000
aI121500000
aI93750000
aI141250000
aI127250000
aI248250000
aI45750000
aI111500000
aI125250000
aI51500000
aI129500000
aI138750000
aI105000000
aI124750000
aI110750000
aI69750000
aI130500000
aI171250000
aI203750000
aI136250000
aI102500000
aI122250000
aI75250000
aI124000000
aI122000000
aI142000000
aI133750000
aI106250000
aI173250000
aI139500000
aI159250000
aI128500000
aI102750000
aI117250000
aI49750000
aI137000000
aI156750000
aI126750000
aI128750000
aI13500000
aI134500000
aI120500000
aI69000000
aI119500000
aI140250000
aI146000000
aI132000000
aI123250000
aI137750000
aI225000000
aI111750000
aI244750000
aI211000000
aI143500000
aI89500000
aI20250000
aI176000000
aI164000000
aI115500000
aI135250000
aI250000
aI121250000
aI119750000
aI73500000
aI160750000
aI127000000
aI146750000
aI45500000
aI132750000
aI31500000
aI51250000
aI125000000
aI138500000
aI144250000
aI110500000
aI130250000
aI124250000
aI136000000
aI141750000
aI122500000
aI125750000
aI139250000
aI155500000
aI91250000
aI133500000
aI120750000
aI133000000
aI131000000
aI71000000
aI49500000
aI136750000
aI35500000
aI55250000
aI108750000
aI142500000
aI53250000
aI148250000
aI13250000
aI134250000
aI120250000
aI140000000
aI91500000
aI47250000
aI126000000
aI131750000
aI50250000
aI105750000
aI137500000
aI157250000
aI123500000
aI244500000
aI143250000
aI129250000
atp6
Rp7
sI2
g4
((lp8
I0
aI8000000
aI236250000
aI240000000
aI242000000
aI239250000
aI6250000
aI233750000
aI239750000
aI42000000
aI239500000
aI4500000
aI8750000
aI90500000
aI99250000
aI95750000
aI96250000
aI2750000
aI209500000
aI242750000
aI161500000
aI93750000
aI95500000
aI1000000
aI73500000
aI234500000
aI233250000
aI99500000
aI17500000
aI240250000
aI41500000
aI37750000
aI7250000
aI111000000
aI35250000
aI116750000
aI15500000
aI5500000
aI10250000
aI241500000
aI94500000
aI238750000
aI3750000
aI5000000
aI241000000
aI4750000
aI92000000
aI2000000
aI15000000
aI238500000
aI63250000
aI16250000
aI124500000
aI41750000
aI95250000
aI238250000
aI236000000
aI6500000
aI35750000
aI241750000
aI92750000
aI12750000
aI233500000
aI98500000
aI17000000
aI90250000
aI3000000
aI88500000
aI237750000
aI129750000
aI96000000
aI48250000
aI14500000
aI9250000
aI242500000
aI73750000
aI93500000
aI15750000
aI12000000
aI200500000
aI63500000
aI17250000
aI129500000
aI57250000
aI237250000
aI5750000
aI9500000
aI96750000
aI15250000
aI237500000
aI1250000
aI103000000
aI4000000
aI10000000
aI40750000
aI94250000
aI235000000
aI2250000
aI240750000
aI93000000
aI91750000
aI500000
aI14750000
aI16000000
aI74500000
aI6750000
aI7750000
aI95000000
aI13500000
aI128500000
aI86750000
aI13000000
aI7500000
aI242250000
aI92500000
aI11000000
aI11250000
aI118000000
aI16750000
aI239000000
aI8500000
aI1500000
aI12250000
aI62000000
aI14250000
aI236500000
aI250000
aI235750000
aI47750000
aI6000000
aI93250000
aI11750000
aI234000000
aI132750000
aI14000000
aI9000000
aI31750000
aI3500000
aI90750000
aI110500000
aI130250000
aI96500000
aI4250000
aI97500000
aI203500000
aI136000000
aI235250000
aI91000000
aI243000000
aI203250000
aI10500000
aI13750000
aI94000000
aI12500000
aI91250000
aI240500000
aI750000
aI91500000
aI236750000
aI133000000
aI97250000
aI237000000
aI97000000
aI7000000
aI2500000
aI238000000
aI234750000
aI1750000
aI41250000
aI94750000
aI5250000
aI13250000
aI235500000
aI154000000
aI241250000
aI11500000
aI3250000
aI92250000
aI10750000
aI233000000
aI234250000
aI16500000
aI9750000
aI22250000
aI8250000
aI61750000
atp9
Rp10
sI3
g4
((lp11
I0
aI8000000
aI101250000
aI121000000
aI6250000
aI98750000
aI4500000
aI750000
aI90500000
aI95750000
aI163750000
aI28750000
aI47750000
aI48500000
aI50750000
aI135750000
aI93750000
aI1000000
aI13500000
aI46000000
aI17500000
aI172750000
aI7250000
aI111000000
aI9750000
aI49250000
aI15500000
aI136500000
aI5500000
aI10250000
aI173000000
aI88750000
aI101000000
aI128250000
aI94500000
aI47000000
aI3750000
aI5000000
aI4750000
aI92000000
aI2000000
aI15000000
aI50000000
aI16250000
aI89500000
aI75500000
aI95250000
aI47500000
aI6500000
aI51750000
aI120750000
aI140500000
aI92750000
aI12750000
aI17000000
aI3000000
aI90250000
aI51000000
aI12500000
aI8750000
aI48250000
aI14500000
aI9250000
aI87750000
aI20250000
aI93500000
aI15750000
aI12000000
aI7500000
aI17250000
aI172500000
aI124750000
aI91000000
aI5750000
aI9500000
aI198000000
aI15250000
aI136250000
aI1250000
aI88500000
aI4000000
aI10000000
aI94250000
aI189000000
aI55750000
aI2250000
aI52250000
aI93000000
aI91750000
aI21000000
aI500000
aI14750000
aI184750000
aI49750000
aI16000000
aI137000000
aI89250000
aI6750000
aI95000000
aI47250000
aI33250000
aI127750000
aI13000000
aI19500000
aI92500000
aI146000000
aI11000000
aI11250000
aI118000000
aI16750000
aI104000000
aI2750000
aI90000000
aI14250000
aI8500000
aI1500000
aI12250000
aI48000000
aI250000
aI188750000
aI7750000
aI39750000
aI6000000
aI93250000
aI11750000
aI166500000
aI128500000
aI118750000
aI14000000
aI9000000
aI138500000
aI3500000
aI90750000
aI4250000
aI136000000
aI49500000
aI141750000
aI10500000
aI13750000
aI94000000
aI91250000
aI48750000
aI125250000
aI91500000
aI111250000
aI109000000
aI7000000
aI2500000
aI49000000
aI1750000
aI89000000
aI94750000
aI5250000
aI13250000
aI11500000
aI3250000
aI92250000
aI10750000
aI98000000
aI117750000
aI16500000
aI41750000
aI89750000
aI8250000
aI163000000
aI95500000
atp12
Rp13
sI4
g4
((lp14
I0
aI8000000
aI53500000
aI6250000
aI98750000
aI51000000
aI4500000
aI750000
aI48500000
aI2750000
aI68250000
aI54250000
aI1000000
aI49500000
aI17500000
aI51750000
aI26000000
aI7250000
aI9750000
aI11750000
aI116750000
aI49250000
aI15500000
aI170250000
aI5500000
aI1500000
aI142250000
aI41000000
aI83000000
aI53000000
aI3750000
aI5000000
aI52500000
aI4750000
aI2000000
aI15000000
aI64000000
aI171000000
aI16250000
aI6500000
aI7750000
aI53250000
aI39250000
aI92750000
aI12750000
aI50750000
aI17000000
aI3000000
aI12500000
aI8750000
aI48250000
aI14500000
aI9250000
aI54000000
aI39750000
aI15750000
aI12000000
aI39500000
aI17250000
aI51500000
aI105000000
aI5750000
aI9500000
aI49000000
aI1250000
aI122250000
aI54750000
aI4000000
aI50000000
aI15250000
aI100000000
aI2250000
aI52250000
aI39000000
aI10250000
aI500000
aI14750000
aI51250000
aI16000000
aI69500000
aI190500000
aI89250000
aI6750000
aI13500000
aI13000000
aI47500000
aI50500000
aI132500000
aI11000000
aI11250000
aI16750000
aI14250000
aI76000000
aI8500000
aI25500000
aI12250000
aI48000000
aI250000
aI86000000
aI53750000
aI47750000
aI73500000
aI6000000
aI175750000
aI45500000
aI14000000
aI9000000
aI3500000
aI4250000
aI102250000
aI54500000
aI10500000
aI13750000
aI52000000
aI48750000
aI71750000
aI10000000
aI7000000
aI26500000
aI69250000
aI1750000
aI7500000
aI5250000
aI13250000
aI52750000
aI38750000
aI11500000
aI3250000
aI145750000
aI78250000
aI10750000
aI50250000
aI16500000
aI49750000
aI2500000
aI191000000
aI8250000
atp15
Rp16
sI5
g4
((lp17
I0
aI8000000
aI6250000
aI180250000
aI45250000
aI48000000
aI51000000
aI4500000
aI44750000
aI47750000
aI48500000
aI2750000
aI107750000
aI1000000
aI5500000
aI12250000
aI17500000
aI7250000
aI29500000
aI50500000
aI49250000
aI170250000
aI45500000
aI10250000
aI148000000
aI46750000
aI3750000
aI100250000
aI5000000
aI4750000
aI42000000
aI15000000
aI10750000
aI50000000
aI69750000
aI16250000
aI47500000
aI6500000
aI23750000
aI120750000
aI12750000
aI98500000
aI152000000
aI50750000
aI17000000
aI58000000
aI3000000
aI12500000
aI110000000
aI8750000
aI46000000
aI129750000
aI48250000
aI14500000
aI34250000
aI9250000
aI15750000
aI180750000
aI45750000
aI12000000
aI7500000
aI17250000
aI51500000
aI5750000
aI9500000
aI29250000
aI15250000
aI1250000
aI69250000
aI4000000
aI2000000
aI147750000
aI114000000
aI46500000
aI2250000
aI69000000
aI45000000
aI44000000
aI500000
aI14750000
aI51250000
aI49750000
aI16000000
aI69500000
aI6750000
aI47250000
aI13500000
aI86750000
aI13000000
aI15500000
aI5250000
aI11000000
aI11250000
aI16750000
aI56250000
aI76000000
aI8500000
aI1500000
aI4250000
aI111750000
aI14250000
aI101500000
aI250000
aI7750000
aI6000000
aI93250000
aI11750000
aI14000000
aI9000000
aI3500000
aI130250000
aI96500000
aI44250000
aI48750000
aI49500000
aI10500000
aI13750000
aI46250000
aI750000
aI10000000
aI131000000
aI63500000
aI7000000
aI2500000
aI49000000
aI1750000
aI47000000
aI21500000
aI75000000
aI37250000
aI148250000
aI13250000
aI33000000
aI11500000
aI3250000
aI44500000
aI50250000
aI16500000
aI9750000
aI70000000
aI8250000
atp18
Rp19
sI6
g4
((lp20
I0
aI8000000
aI30250000
aI33750000
aI87250000
aI36500000
aI6250000
aI31250000
aI42000000
aI4500000
aI750000
aI42750000
aI9000000
aI62500000
aI58750000
aI34500000
aI141500000
aI60000000
aI57000000
aI13500000
aI35500000
aI32000000
aI17500000
aI137250000
aI7250000
aI57500000
aI111000000
aI9750000
aI63250000
aI35000000
aI107250000
aI5500000
aI10250000
aI60750000
aI77000000
aI3750000
aI5000000
aI86250000
aI4750000
aI58250000
aI58000000
aI15000000
aI34750000
aI64000000
aI171000000
aI36000000
aI16250000
aI61500000
aI6500000
aI59750000
aI87000000
aI78750000
aI12750000
aI34000000
aI31000000
aI17000000
aI36750000
aI3000000
aI59000000
aI12500000
aI8750000
aI62250000
aI14500000
aI34250000
aI9250000
aI63750000
aI15750000
aI12000000
aI7500000
aI17250000
aI81500000
aI57250000
aI5750000
aI9500000
aI63000000
aI49000000
aI1250000
aI4000000
aI2000000
aI142000000
aI15250000
aI3250000
aI60500000
aI2250000
aI33000000
aI77750000
aI121000000
aI500000
aI14750000
aI16000000
aI35750000
aI6750000
aI61250000
aI33250000
aI86750000
aI13000000
aI15500000
aI37000000
aI38500000
aI11000000
aI30750000
aI59250000
aI118000000
aI16750000
aI2750000
aI42250000
aI8500000
aI1500000
aI12250000
aI62000000
aI115500000
aI14250000
aI250000
aI44000000
aI7750000
aI6000000
aI59500000
aI11750000
aI31500000
aI14000000
aI1000000
aI43750000
aI31750000
aI3500000
aI76750000
aI43000000
aI62750000
aI4250000
aI68500000
aI43500000
aI141750000
aI10500000
aI13750000
aI60250000
aI43250000
aI56750000
aI33500000
aI77500000
aI10000000
aI63500000
aI7000000
aI2500000
aI61000000
aI1750000
aI75000000
aI5250000
aI13250000
aI42500000
aI66750000
aI120500000
aI86500000
aI38750000
aI11500000
aI11250000
aI58500000
aI10750000
aI30500000
aI35250000
aI16500000
aI57750000
aI36250000
aI8250000
aI61750000
atp21
Rp22
sI7
g4
((lp23
I0
aI8000000
aI6250000
aI152250000
aI4500000
aI750000
aI9000000
aI62500000
aI82250000
aI2750000
aI60000000
aI57000000
aI13500000
aI65500000
aI99500000
aI17500000
aI7250000
aI23750000
aI83250000
aI9750000
aI59250000
aI63250000
aI83000000
aI5500000
aI10250000
aI149000000
aI74750000
aI60750000
aI3750000
aI100250000
aI5000000
aI4750000
aI58250000
aI58000000
aI15000000
aI64000000
aI50000000
aI16250000
aI61500000
aI6500000
aI7750000
aI140500000
aI59000000
aI12750000
aI64750000
aI152000000
aI17000000
aI138000000
aI92500000
aI56500000
aI3000000
aI12500000
aI8750000
aI62250000
aI82000000
aI14500000
aI9250000
aI63750000
aI59750000
aI15750000
aI12000000
aI7500000
aI17250000
aI105000000
aI57250000
aI57500000
aI5750000
aI9500000
aI96750000
aI63000000
aI150250000
aI82750000
aI15250000
aI136250000
aI68750000
aI1250000
aI75250000
aI4000000
aI2000000
aI94250000
aI60500000
aI100000000
aI2250000
aI72000000
aI500000
aI14750000
aI145500000
aI16000000
aI6750000
aI61250000
aI100750000
aI13000000
aI15500000
aI5250000
aI58750000
aI11000000
aI11250000
aI16750000
aI137750000
aI70250000
aI56250000
aI8500000
aI1500000
aI12250000
aI62000000
aI14250000
aI250000
aI55750000
aI73500000
aI6000000
aI59500000
aI11750000
aI65250000
aI73750000
aI14000000
aI1000000
aI3500000
aI130250000
aI62750000
aI4250000
aI82500000
aI97500000
aI74250000
aI10500000
aI13750000
aI60250000
aI56750000
aI71750000
aI43750000
aI10000000
aI7000000
aI2500000
aI61000000
aI1750000
aI45250000
aI13250000
aI100500000
aI106250000
aI11500000
aI3250000
aI58500000
aI10750000
aI66500000
aI16500000
aI57750000
aI56000000
aI8250000
aI61750000
atp24
Rp25
sI8
g4
((lp26
I0
aI8000000
aI6250000
aI45250000
aI48000000
aI70750000
aI4500000
aI8750000
aI90500000
aI42750000
aI47750000
aI48500000
aI2750000
aI54250000
aI88000000
aI1000000
aI13500000
aI46000000
aI17500000
aI51750000
aI18000000
aI37750000
aI31250000
aI144750000
aI9750000
aI50500000
aI11250000
aI15500000
aI5500000
aI42250000
aI74750000
aI7250000
aI46750000
aI3750000
aI5000000
aI4750000
aI42000000
aI15000000
aI44250000
aI22750000
aI50000000
aI16250000
aI22000000
aI47500000
aI6500000
aI15750000
aI12750000
aI118250000
aI17000000
aI56500000
aI3000000
aI12500000
aI48250000
aI14500000
aI9250000
aI127250000
aI45750000
aI12000000
aI39500000
aI17250000
aI45500000
aI5750000
aI9500000
aI15250000
aI1250000
aI4000000
aI2000000
aI3250000
aI46500000
aI2250000
aI45000000
aI10250000
aI500000
aI14750000
aI16000000
aI35750000
aI6750000
aI47250000
aI104500000
aI13000000
aI43500000
aI39000000
aI44500000
aI146000000
aI44750000
aI11000000
aI43250000
aI118000000
aI16750000
aI22500000
aI8500000
aI1500000
aI12250000
aI14250000
aI250000
aI53750000
aI44000000
aI7750000
aI6000000
aI145750000
aI11750000
aI14000000
aI9000000
aI3500000
aI43000000
aI145500000
aI4250000
aI48750000
aI10500000
aI13750000
aI60250000
aI46250000
aI750000
aI145000000
aI43750000
aI10000000
aI7000000
aI42500000
aI49000000
aI1750000
aI47000000
aI7500000
aI5250000
aI71500000
aI13250000
aI120250000
aI11500000
aI39250000
aI144500000
aI10750000
aI16500000
aI41750000
aI2500000
aI22250000
aI8250000
atp27
Rp28
sI9
g4
((lp29
I0
aI8000000
aI67500000
aI6250000
aI250000
aI53500000
aI30250000
aI45250000
aI65000000
aI48000000
aI51000000
aI4500000
aI8750000
aI56750000
aI42750000
aI62500000
aI47750000
aI35750000
aI48500000
aI2750000
aI68250000
aI34500000
aI54250000
aI60000000
aI1000000
aI41500000
aI12250000
aI65750000
aI17500000
aI119250000
aI51750000
aI39250000
aI57500000
aI59250000
aI63250000
aI49250000
aI15500000
aI102750000
aI5500000
aI42250000
aI55000000
aI41000000
aI60750000
aI53000000
aI46750000
aI3750000
aI5000000
aI52500000
aI4750000
aI58250000
aI42000000
aI15000000
aI64000000
aI50000000
aI69750000
aI16250000
aI55750000
aI41750000
aI127750000
aI61500000
aI115000000
aI47500000
aI6500000
aI31750000
aI53250000
aI59000000
aI12750000
aI64750000
aI50750000
aI17000000
aI58000000
aI70500000
aI56500000
aI3000000
aI12500000
aI42500000
aI46000000
aI62250000
aI48250000
aI14500000
aI9250000
aI54000000
aI63750000
aI40000000
aI59750000
aI15750000
aI45750000
aI12000000
aI39500000
aI17250000
aI51500000
aI99500000
aI57250000
aI45500000
aI5750000
aI9500000
aI96750000
aI63000000
aI15250000
aI1250000
aI54750000
aI4000000
aI2000000
aI60500000
aI46500000
aI32500000
aI2250000
aI119750000
aI52250000
aI96500000
aI139500000
aI65500000
aI45000000
aI77750000
aI10250000
aI500000
aI14750000
aI51250000
aI49750000
aI16000000
aI69500000
aI55500000
aI6750000
aI61250000
aI37500000
aI47250000
aI13500000
aI67000000
aI13000000
aI7500000
aI140250000
aI50500000
aI44500000
aI58750000
aI11000000
aI64500000
aI11250000
aI16750000
aI70250000
aI36500000
aI56250000
aI8500000
aI1500000
aI40250000
aI62000000
aI14250000
aI67750000
aI34000000
aI53750000
aI7750000
aI39750000
aI6000000
aI59500000
aI11750000
aI65250000
aI14000000
aI9000000
aI3500000
aI90750000
aI57000000
aI43000000
aI62750000
aI4250000
aI48750000
aI35500000
aI34750000
aI49500000
aI54500000
aI10500000
aI13750000
aI60250000
aI46250000
aI66000000
aI119500000
aI52000000
aI750000
aI7250000
aI38000000
aI125250000
aI57750000
aI10000000
aI131000000
aI63500000
aI97000000
aI7000000
aI2500000
aI61000000
aI49000000
aI1750000
aI47000000
aI55250000
aI41250000
aI5250000
aI13250000
aI66750000
aI36750000
aI52750000
aI140000000
aI11500000
aI3250000
aI58500000
aI10750000
aI64250000
aI50250000
aI16500000
aI9750000
aI70000000
aI56000000
aI8250000
aI61750000
atp30
Rp31
sI10
g4
((lp32
I0
aI8000000
aI6250000
aI38250000
aI42000000
aI4500000
aI750000
aI42750000
aI96250000
aI47750000
aI14750000
aI2750000
aI40250000
aI48000000
aI1000000
aI13500000
aI17500000
aI37750000
aI39250000
aI83250000
aI43500000
aI5250000
aI83000000
aI15500000
aI5500000
aI10250000
aI7250000
aI3750000
aI5000000
aI38500000
aI2000000
aI15000000
aI44250000
aI4750000
aI16250000
aI100500000
aI41750000
aI82500000
aI6500000
aI15750000
aI12750000
aI17000000
aI42500000
aI3000000
aI12500000
aI8750000
aI14500000
aI135500000
aI9250000
aI40000000
aI45750000
aI12000000
aI39500000
aI17250000
aI85000000
aI37500000
aI5750000
aI9500000
aI96750000
aI82750000
aI15250000
aI1250000
aI69250000
aI4000000
aI10000000
aI40750000
aI46500000
aI2250000
aI117000000
aI41000000
aI105750000
aI91750000
aI44000000
aI500000
aI38750000
aI16000000
aI6750000
aI41500000
aI100750000
aI120500000
aI13000000
aI7500000
aI39000000
aI44500000
aI11000000
aI11250000
aI16750000
aI42250000
aI8500000
aI1500000
aI12250000
aI14250000
aI250000
aI7750000
aI39750000
aI6000000
aI11750000
aI14000000
aI9000000
aI3500000
aI43000000
aI96500000
aI4250000
aI48750000
aI40500000
aI10500000
aI13750000
aI94000000
aI43250000
aI32750000
aI38000000
aI43750000
aI7000000
aI2500000
aI49000000
aI1750000
aI41250000
aI37250000
aI13250000
aI66750000
aI33000000
aI11500000
aI3250000
aI10750000
aI16500000
aI9750000
aI22250000
aI8250000
atp33
Rp34
sI11
g4
((lp35
I0
aI8000000
aI135000000
aI67500000
aI87250000
aI53500000
aI6250000
aI4500000
aI32750000
aI56750000
aI76500000
aI48500000
aI50750000
aI750000
aI54250000
aI107750000
aI1000000
aI1500000
aI17500000
aI51750000
aI7250000
aI77250000
aI9750000
aI5500000
aI10250000
aI55000000
aI101000000
aI53000000
aI3750000
aI5000000
aI52500000
aI4750000
aI2000000
aI15000000
aI16750000
aI16250000
aI55750000
aI6500000
aI7750000
aI53250000
aI12750000
aI98500000
aI17000000
aI3000000
aI56500000
aI51000000
aI12500000
aI8750000
aI48250000
aI14500000
aI9250000
aI87750000
aI54000000
aI15750000
aI12000000
aI7500000
aI17250000
aI85000000
aI51500000
aI129500000
aI71250000
aI45500000
aI5750000
aI9500000
aI63000000
aI15250000
aI1250000
aI122250000
aI54750000
aI4000000
aI50000000
aI3250000
aI2250000
aI52250000
aI125500000
aI58000000
aI500000
aI14750000
aI16000000
aI55500000
aI6750000
aI13500000
aI13000000
aI15500000
aI44750000
aI11000000
aI64500000
aI51250000
aI50500000
aI2750000
aI56250000
aI64750000
aI8500000
aI49500000
aI12250000
aI14250000
aI101500000
aI250000
aI53750000
aI47750000
aI6000000
aI11750000
aI65250000
aI14000000
aI9000000
aI3500000
aI62750000
aI4250000
aI54500000
aI10500000
aI13750000
aI60250000
aI52000000
aI48750000
aI77500000
aI10000000
aI109000000
aI7000000
aI2500000
aI1750000
aI55250000
aI5250000
aI13250000
aI52750000
aI11500000
aI11250000
aI58500000
aI10750000
aI50250000
aI16500000
aI49750000
aI123500000
aI56000000
aI8250000
aI61750000
atp36
Rp37
sI12
g4
((lp38
I0
aI8000000
aI250000
aI39500000
aI6250000
aI61000000
aI4500000
aI750000
aI9000000
aI82250000
aI2750000
aI74000000
aI1000000
aI1500000
aI35500000
aI32000000
aI17500000
aI18000000
aI37750000
aI7250000
aI23750000
aI9750000
aI35250000
aI35000000
aI5500000
aI10250000
aI21250000
aI3750000
aI5000000
aI4750000
aI2000000
aI15000000
aI36000000
aI16250000
aI61500000
aI6500000
aI31750000
aI39250000
aI12750000
aI50750000
aI17000000
aI36750000
aI3000000
aI12500000
aI8750000
aI14500000
aI34250000
aI9250000
aI87750000
aI40000000
aI15750000
aI12000000
aI7500000
aI17250000
aI119000000
aI37500000
aI69500000
aI5750000
aI9500000
aI15250000
aI102500000
aI1250000
aI4000000
aI10000000
aI100000000
aI2250000
aI38250000
aI24250000
aI21000000
aI500000
aI14750000
aI16000000
aI35750000
aI6750000
aI13500000
aI33250000
aI13000000
aI15500000
aI37000000
aI39000000
aI38500000
aI112250000
aI11000000
aI11250000
aI16750000
aI36500000
aI8500000
aI33500000
aI12250000
aI14250000
aI34000000
aI7750000
aI39750000
aI6000000
aI11750000
aI14000000
aI33000000
aI37250000
aI3500000
aI4250000
aI133500000
aI48750000
aI34750000
aI10500000
aI13750000
aI99750000
aI32750000
aI38000000
aI7000000
aI34500000
aI55000000
aI1750000
aI94750000
aI5250000
aI13250000
aI120250000
aI38750000
aI11500000
aI3250000
aI10750000
aI30500000
aI84000000
aI16500000
aI33750000
aI36250000
aI2500000
aI8250000
atp39
Rp40
sI13
g4
((lp41
I0
aI8000000
aI6250000
aI4500000
aI20750000
aI14750000
aI2750000
aI20500000
aI1000000
aI13500000
aI17500000
aI18000000
aI7250000
aI15500000
aI5500000
aI18250000
aI19750000
aI5000000
aI18750000
aI4750000
aI2000000
aI15000000
aI16250000
aI6500000
aI3750000
aI12750000
aI17000000
aI3000000
aI12500000
aI8750000
aI14500000
aI9250000
aI20250000
aI15750000
aI12000000
aI7500000
aI17250000
aI17750000
aI5750000
aI9500000
aI15250000
aI1250000
aI4000000
aI10000000
aI3250000
aI2250000
aI21000000
aI10250000
aI500000
aI38750000
aI16000000
aI6750000
aI114750000
aI13000000
aI19500000
aI11000000
aI98250000
aI19250000
aI16750000
aI8500000
aI1500000
aI12250000
aI14250000
aI250000
aI20000000
aI7750000
aI6000000
aI11750000
aI14000000
aI9000000
aI3500000
aI4250000
aI10500000
aI13750000
aI750000
aI63500000
aI7000000
aI18500000
aI1750000
aI41250000
aI5250000
aI13250000
aI19000000
aI11500000
aI11250000
aI10750000
aI16500000
aI9750000
aI2500000
aI8250000
atp42
Rp43
sI14
g4
((lp44
I0
aI8000000
aI53500000
aI6250000
aI25500000
aI70750000
aI4500000
aI20750000
aI23000000
aI2750000
aI20500000
aI93750000
aI1000000
aI13500000
aI12250000
aI32000000
aI17500000
aI18000000
aI7250000
aI23750000
aI15500000
aI5500000
aI18250000
aI21250000
aI19750000
aI5000000
aI18750000
aI72250000
aI4750000
aI92000000
aI24500000
aI2000000
aI15000000
aI64000000
aI16250000
aI22000000
aI6500000
aI3750000
aI25250000
aI12750000
aI17000000
aI42500000
aI22750000
aI3000000
aI12500000
aI8750000
aI46000000
aI14500000
aI9250000
aI20250000
aI15750000
aI45750000
aI12000000
aI7500000
aI17250000
aI17750000
aI23500000
aI5750000
aI9500000
aI15250000
aI1250000
aI4000000
aI10000000
aI3250000
aI2250000
aI21000000
aI10250000
aI500000
aI14750000
aI16000000
aI21750000
aI6750000
aI67000000
aI13000000
aI19500000
aI72750000
aI39000000
aI25000000
aI11000000
aI19250000
aI16750000
aI22500000
aI8500000
aI1500000
aI24250000
aI14250000
aI250000
aI20000000
aI7750000
aI39750000
aI6000000
aI11750000
aI85750000
aI14000000
aI9000000
aI3500000
aI4250000
aI34750000
aI10500000
aI13750000
aI46250000
aI43250000
aI750000
aI24000000
aI43750000
aI7000000
aI18500000
aI1750000
aI21500000
aI5250000
aI13250000
aI19000000
aI11500000
aI11250000
aI24750000
aI10750000
aI16500000
aI9750000
aI2500000
aI22250000
aI8250000
atp45
Rp46
sI15
g4
((lp47
I0
aI8000000
aI6250000
aI31250000
aI4500000
aI20750000
aI2750000
aI20500000
aI26250000
aI1000000
aI13500000
aI17500000
aI18000000
aI7250000
aI23750000
aI15500000
aI5500000
aI18250000
aI21250000
aI77000000
aI19750000
aI5000000
aI18750000
aI4750000
aI24500000
aI2000000
aI15000000
aI22750000
aI16250000
aI22000000
aI6500000
aI3750000
aI25250000
aI33500000
aI12750000
aI17000000
aI56500000
aI3000000
aI12500000
aI8750000
aI14500000
aI9250000
aI20250000
aI15750000
aI12000000
aI7500000
aI17250000
aI17750000
aI5750000
aI9500000
aI82750000
aI15250000
aI102500000
aI1250000
aI4000000
aI10000000
aI3250000
aI2250000
aI24250000
aI21000000
aI10250000
aI500000
aI14750000
aI30000000
aI16000000
aI21750000
aI6750000
aI41500000
aI47250000
aI13000000
aI19500000
aI44500000
aI11000000
aI19250000
aI16750000
aI8500000
aI1500000
aI12250000
aI14250000
aI250000
aI20000000
aI7750000
aI26000000
aI6000000
aI25750000
aI11750000
aI31500000
aI14000000
aI9000000
aI3500000
aI76750000
aI4250000
aI10500000
aI13750000
aI46250000
aI750000
aI24000000
aI29750000
aI7000000
aI18500000
aI55000000
aI1750000
aI21500000
aI94750000
aI5250000
aI13250000
aI19000000
aI11500000
aI11250000
aI24750000
aI10750000
aI16500000
aI9750000
aI2500000
aI8250000
atp48
Rp49
sI16
g4
((lp50
I0
aI8000000
aI250000
aI39500000
aI6250000
aI45250000
aI42000000
aI4500000
aI8750000
aI42750000
aI47750000
aI2750000
aI34500000
aI40250000
aI26250000
aI1000000
aI1500000
aI12250000
aI35500000
aI17500000
aI37750000
aI7250000
aI9750000
aI35250000
aI35000000
aI5500000
aI10250000
aI41000000
aI3750000
aI5000000
aI4750000
aI58250000
aI24500000
aI2000000
aI15000000
aI44250000
aI36000000
aI16250000
aI41750000
aI6500000
aI31750000
aI39250000
aI25250000
aI12750000
aI17000000
aI36750000
aI90250000
aI3000000
aI500000
aI42500000
aI46000000
aI14500000
aI34250000
aI9250000
aI40000000
aI15750000
aI45750000
aI12000000
aI7500000
aI17250000
aI37500000
aI45500000
aI5750000
aI9500000
aI15250000
aI1250000
aI4000000
aI10000000
aI40750000
aI3250000
aI2250000
aI38250000
aI45000000
aI44000000
aI32500000
aI14750000
aI16000000
aI35750000
aI6750000
aI41500000
aI13500000
aI33250000
aI13000000
aI15500000
aI37000000
aI39000000
aI38500000
aI25000000
aI44750000
aI11000000
aI19250000
aI16750000
aI36500000
aI42250000
aI8500000
aI33500000
aI24250000
aI28250000
aI14250000
aI34000000
aI7750000
aI39750000
aI6000000
aI11750000
aI31500000
aI14000000
aI9000000
aI37250000
aI3500000
aI43000000
aI4250000
aI34750000
aI43500000
aI40500000
aI10500000
aI13750000
aI12500000
aI44500000
aI43250000
aI750000
aI38000000
aI43750000
aI7000000
aI2500000
aI1750000
aI41250000
aI5250000
aI13250000
aI19000000
aI38750000
aI11500000
aI11250000
aI10750000
aI72500000
aI16500000
aI33750000
aI36250000
aI8250000
atp51
Rp52
sI17
g4
((lp53
I0
aI8000000
aI6250000
aI25500000
aI4500000
aI20750000
aI56750000
aI23000000
aI2750000
aI34500000
aI20500000
aI26250000
aI1000000
aI13500000
aI65500000
aI17500000
aI23250000
aI23750000
aI5500000
aI10250000
aI21250000
aI7250000
aI27000000
aI19750000
aI5000000
aI52500000
aI4750000
aI24500000
aI2000000
aI15000000
aI64000000
aI16250000
aI58500000
aI6500000
aI3750000
aI25250000
aI33500000
aI12750000
aI17000000
aI22750000
aI3000000
aI12500000
aI8750000
aI14500000
aI9250000
aI20250000
aI59750000
aI15750000
aI12000000
aI7500000
aI17250000
aI23500000
aI5750000
aI9500000
aI15250000
aI1250000
aI4000000
aI22000000
aI27250000
aI26750000
aI2250000
aI24250000
aI21000000
aI500000
aI14750000
aI30000000
aI16000000
aI21750000
aI6750000
aI27500000
aI13000000
aI15500000
aI58750000
aI25000000
aI11000000
aI11250000
aI16750000
aI70250000
aI8500000
aI1500000
aI12250000
aI28250000
aI14250000
aI250000
aI7750000
aI26000000
aI6000000
aI25750000
aI11750000
aI14000000
aI9000000
aI3500000
aI4250000
aI10500000
aI13750000
aI26500000
aI750000
aI24000000
aI10000000
aI7000000
aI22500000
aI1750000
aI21500000
aI41250000
aI5250000
aI13250000
aI11500000
aI3250000
aI24750000
aI10750000
aI16500000
aI9750000
aI2500000
aI22250000
aI8250000
atp54
Rp55
sI18
g4
((lp56
I0
aI8000000
aI6250000
aI4500000
aI8750000
aI2750000
aI34500000
aI20500000
aI1000000
aI13500000
aI17500000
aI18000000
aI7250000
aI57500000
aI15500000
aI5500000
aI18250000
aI19750000
aI5000000
aI18750000
aI4750000
aI2000000
aI15000000
aI16250000
aI6500000
aI3750000
aI12750000
aI17000000
aI3000000
aI12500000
aI14500000
aI9250000
aI20250000
aI15750000
aI12000000
aI7500000
aI17250000
aI17750000
aI5750000
aI9500000
aI15250000
aI1250000
aI4000000
aI10000000
aI3250000
aI2250000
aI10250000
aI500000
aI14750000
aI16000000
aI6750000
aI33250000
aI13000000
aI19500000
aI11000000
aI19250000
aI16750000
aI8500000
aI1500000
aI12250000
aI14250000
aI250000
aI20000000
aI7750000
aI6000000
aI11750000
aI14000000
aI9000000
aI3500000
aI4250000
aI10500000
aI13750000
aI750000
aI57750000
aI7000000
aI18500000
aI1750000
aI5250000
aI13250000
aI19000000
aI11500000
aI11250000
aI58500000
aI10750000
aI16500000
aI9750000
aI2500000
aI8250000
atp57
Rp58
sI19
g4
((lp59
I0
aI8000000
aI39500000
aI6250000
aI25500000
aI51000000
aI4500000
aI20750000
aI23000000
aI28750000
aI2750000
aI34500000
aI26250000
aI1000000
aI13500000
aI35500000
aI17500000
aI37750000
aI23250000
aI29500000
aI35000000
aI5500000
aI10250000
aI21250000
aI7250000
aI27000000
aI46750000
aI3750000
aI29000000
aI5000000
aI4750000
aI24500000
aI2000000
aI15000000
aI30250000
aI45000000
aI16250000
aI27750000
aI6500000
aI23750000
aI39250000
aI25250000
aI12750000
aI17000000
aI36750000
aI22750000
aI3000000
aI12500000
aI8750000
aI28500000
aI48250000
aI14500000
aI9250000
aI20250000
aI15750000
aI12000000
aI7500000
aI17250000
aI37500000
aI23500000
aI5750000
aI9500000
aI29250000
aI15250000
aI1250000
aI4000000
aI22000000
aI40750000
aI27250000
aI26750000
aI2250000
aI38250000
aI24250000
aI500000
aI14750000
aI30000000
aI16000000
aI21750000
aI6750000
aI41500000
aI27500000
aI13000000
aI15500000
aI37000000
aI50500000
aI44500000
aI25000000
aI11000000
aI11250000
aI16750000
aI36500000
aI8500000
aI1500000
aI12250000
aI28250000
aI14250000
aI250000
aI20000000
aI7750000
aI26000000
aI6000000
aI25750000
aI11750000
aI14000000
aI9000000
aI37250000
aI3500000
aI4250000
aI10500000
aI13750000
aI26500000
aI750000
aI24000000
aI43750000
aI10000000
aI29750000
aI7000000
aI22500000
aI1750000
aI21500000
aI5250000
aI13250000
aI33000000
aI52750000
aI11500000
aI3250000
aI24750000
aI10750000
aI50250000
aI16500000
aI9750000
aI2500000
aI22250000
aI8250000
aI28000000
atp60
Rp61
sI20
g4
((lp62
I0
aI8000000
aI6250000
aI31250000
aI42000000
aI4500000
aI8750000
aI28750000
aI26750000
aI40250000
aI26250000
aI1000000
aI1500000
aI12250000
aI35500000
aI17500000
aI18000000
aI7250000
aI29500000
aI15500000
aI5500000
aI10250000
aI27000000
aI3750000
aI29000000
aI5000000
aI4750000
aI24500000
aI2000000
aI15000000
aI44250000
aI30250000
aI16250000
aI27750000
aI6500000
aI15750000
aI25250000
aI12750000
aI31000000
aI50750000
aI17000000
aI3000000
aI12500000
aI46000000
aI28500000
aI14500000
aI9250000
aI26000000
aI12000000
aI7500000
aI17250000
aI5750000
aI9500000
aI29250000
aI15250000
aI1250000
aI4000000
aI10000000
aI3250000
aI2250000
aI63000000
aI500000
aI14750000
aI30000000
aI16000000
aI32750000
aI6750000
aI13500000
aI13000000
aI27500000
aI62500000
aI25000000
aI11000000
aI30750000
aI27250000
aI16750000
aI2750000
aI42250000
aI8500000
aI25500000
aI24250000
aI28250000
aI14250000
aI250000
aI7750000
aI6000000
aI25750000
aI11750000
aI31500000
aI14000000
aI9000000
aI3500000
aI4250000
aI10500000
aI13750000
aI750000
aI29750000
aI7000000
aI26500000
aI1750000
aI5250000
aI13250000
aI11500000
aI11250000
aI24750000
aI10750000
aI30500000
aI16500000
aI9750000
aI2500000
aI8250000
aI28000000
atp63
Rp64
sI21
g4
((lp65
I0
aI4000000
aI14000000
aI10500000
aI7000000
aI16250000
aI12750000
aI9250000
aI5750000
aI2250000
aI18500000
aI15000000
aI11500000
aI8000000
aI4500000
aI1000000
aI17250000
aI13750000
aI1500000
aI6750000
aI500000
aI3750000
aI16000000
aI12500000
aI9000000
aI5500000
aI2000000
aI14750000
aI750000
aI7750000
aI4250000
aI10250000
aI17000000
aI13500000
aI10000000
aI6500000
aI3000000
aI2500000
aI12250000
aI8750000
aI17500000
aI13000000
aI14500000
aI11000000
aI7500000
aI5250000
aI16750000
aI13250000
aI9750000
aI6250000
aI2750000
aI15750000
aI11250000
aI15500000
aI12000000
aI8500000
aI3500000
aI3250000
aI14250000
aI10750000
aI7250000
aI250000
aI27000000
aI16500000
aI1750000
aI9500000
aI6000000
aI5000000
aI15250000
aI11750000
aI8250000
aI4750000
aI1250000
atp66
Rp67
sI22
g4
((lp68
I0
aI4000000
aI14000000
aI10500000
aI7000000
aI32000000
aI16250000
aI12750000
aI9250000
aI5750000
aI2250000
aI15000000
aI11500000
aI8000000
aI4500000
aI1000000
aI17250000
aI13750000
aI1500000
aI6750000
aI500000
aI3750000
aI51250000
aI41250000
aI16000000
aI12500000
aI9000000
aI5500000
aI2000000
aI29000000
aI32750000
aI14750000
aI750000
aI7750000
aI4250000
aI10250000
aI17000000
aI13500000
aI10000000
aI6500000
aI41000000
aI3000000
aI2500000
aI12250000
aI8750000
aI50500000
aI35000000
aI17500000
aI13000000
aI21500000
aI18000000
aI14500000
aI11000000
aI7500000
aI5250000
aI16750000
aI13250000
aI9750000
aI6250000
aI2750000
aI31750000
aI15750000
aI11250000
aI15500000
aI12000000
aI8500000
aI3500000
aI3250000
aI17750000
aI14250000
aI10750000
aI7250000
aI250000
aI16500000
aI1750000
aI9500000
aI6000000
aI5000000
aI50000000
aI15250000
aI11750000
aI8250000
aI4750000
aI1250000
atp69
Rp70
s.