(lp0
(lp1
(S'2'
p2
S'233250000'
p3
tp4
a(S'5'
p5
S'170750000'
p6
tp7
aa(lp8
(S'9'
p9
S'33500000'
p10
tp11
aa(lp12
(g5
S'55750000'
p13
tp14
a(S'7'
p15
S'80500000'
p16
tp17
a(g15
S'80250000'
p18
tp19
a(g5
S'55500000'
p20
tp21
a(g5
S'55250000'
p22
tp23
a(g15
S'81000000'
p24
tp25
a(g15
S'80750000'
p26
tp27
aa(lp28
(g2
S'105250000'
p29
tp30
aa(lp31
(S'10'
p32
S'30750000'
p33
tp34
a(S'16'
p35
S'87000000'
p36
tp37
a(S'21'
p38
S'37250000'
p39
tp40
aa(lp41
(S'1'
p42
S'54750000'
p43
tp44
aa(lp45
(g15
S'96250000'
p46
tp47
aa(lp48
(g5
S'178500000'
p49
tp50
aa(lp51
(S'3'
p52
S'124750000'
p53
tp54
a(g52
S'124500000'
p55
tp56
a(S'11'
p57
S'73000000'
p58
tp59
a(g42
S'25000000'
p60
tp61
aa(lp62
(S'10'
p63
S'107500000'
p64
tp65
aa(lp66
(S'17'
p67
S'48250000'
p68
tp69
a(S'13'
p70
S'114500000'
p71
tp72
aa(lp73
(S'8'
p74
S'125750000'
p75
tp76
aa(lp77
(S'11'
p78
S'74750000'
p79
tp80
a(S'15'
p81
S'69750000'
p82
tp83
a(g2
S'26750000'
p84
tp85
a(g42
S'203000000'
p86
tp87
aa(lp88
(S'18'
p89
S'77500000'
p90
tp91
a(S'18'
p92
S'77250000'
p93
tp94
aa(lp95
(g9
S'128000000'
p96
tp97
a(g42
S'10500000'
p98
tp99
a(g52
S'197500000'
p100
tp101
a(S'10'
p102
S'103500000'
p103
tp104
a(g2
S'26250000'
p105
tp106
aa(lp107
(g15
S'159000000'
p108
tp109
a(S'12'
p110
S'129000000'
p111
tp112
a(g74
S'139000000'
p113
tp114
a(S'14'
p115
S'106250000'
p116
tp117
a(S'12'
p118
S'130500000'
p119
tp120
a(g15
S'157500000'
p121
tp122
a(S'14'
p123
S'106750000'
p124
tp125
a(g15
S'153500000'
p126
tp127
a(g74
S'140000000'
p128
tp129
a(S'12'
p130
S'128250000'
p131
tp132
a(S'12'
p133
S'131000000'
p134
tp135
a(S'6'
p136
S'167500000'
p137
tp138
a(g15
S'154500000'
p139
tp140
a(S'14'
p141
S'106500000'
p142
tp143
a(S'12'
p144
S'130250000'
p145
tp146
a(S'11'
p147
S'133250000'
p148
tp149
a(S'12'
p150
S'129750000'
p151
tp152
a(S'14'
p153
S'107000000'
p154
tp155
a(g15
S'153250000'
p156
tp157
a(g42
S'5500000'
p158
tp159
a(S'10'
p160
S'132750000'
p161
tp162
a(S'14'
p163
S'99250000'
p164
tp165
a(S'10'
p166
S'130500000'
p167
tp168
a(S'12'
p169
S'126500000'
p170
tp171
a(S'10'
p172
S'130250000'
p173
tp174
a(S'11'
p175
S'133500000'
p176
tp177
a(S'12'
p178
S'127000000'
p179
tp180
a(g74
S'142750000'
p181
tp182
a(g15
S'154250000'
p183
tp184
a(S'11'
p185
S'134750000'
p186
tp187
a(S'12'
p188
S'126250000'
p189
tp190
a(S'12'
p191
S'130000000'
p192
tp193
a(S'11'
p194
S'133000000'
p195
tp196
a(S'10'
p197
S'133250000'
p198
tp199
a(S'12'
p200
S'129500000'
p201
tp202
a(S'10'
p203
S'132500000'
p204
tp205
a(g136
S'169000000'
p206
tp207
a(g42
S'5000000'
p208
tp209
a(g74
S'139750000'
p210
tp211
a(S'10'
p212
S'132250000'
p213
tp214
a(g15
S'157250000'
p215
tp216
a(g15
S'153000000'
p217
tp218
a(S'12'
p219
S'128750000'
p220
tp221
a(g74
S'138750000'
p222
tp223
a(g15
S'155750000'
p224
tp225
a(g42
S'4500000'
p226
tp227
a(S'12'
p228
S'131500000'
p229
tp230
a(g136
S'168750000'
p231
tp232
a(g15
S'154000000'
p233
tp234
a(g136
S'167750000'
p235
tp236
a(S'10'
p237
S'130000000'
p238
tp239
a(S'12'
p240
S'129250000'
p241
tp242
a(S'12'
p243
S'130750000'
p244
tp245
a(g15
S'152750000'
p246
tp247
a(g15
S'157750000'
p248
tp249
a(g74
S'143250000'
p250
tp251
a(S'14'
p252
S'98250000'
p253
tp254
a(g15
S'153750000'
p255
tp256
a(g74
S'140250000'
p257
tp258
a(g74
S'139500000'
p259
tp260
a(g42
S'4000000'
p261
tp262
a(S'10'
p263
S'133500000'
p264
tp265
a(S'12'
p266
S'131750000'
p267
tp268
a(g74
S'140500000'
p269
tp270
a(S'10'
p271
S'133000000'
p272
tp273
a(S'10'
p274
S'132000000'
p275
tp276
a(S'12'
p277
S'126000000'
p278
tp279
a(g74
S'139250000'
p280
tp281
a(g42
S'4250000'
p282
tp283
a(S'14'
p284
S'106000000'
p285
tp286
a(g74
S'143000000'
p287
tp288
a(g136
S'168500000'
p289
tp290
a(g15
S'156000000'
p291
tp292
a(g42
S'5250000'
p293
tp294
a(S'12'
p295
S'128500000'
p296
tp297
a(S'11'
p298
S'134250000'
p299
tp300
a(g42
S'4750000'
p301
tp302
a(g15
S'158000000'
p303
tp304
aa(lp305
(S'15'
p306
S'70000000'
p307
tp308
a(g42
S'25250000'
p309
tp310
a(S'16'
p311
S'86000000'
p312
tp313
a(S'10'
p314
S'71250000'
p315
tp316
a(S'11'
p317
S'69500000'
p318
tp319
aa(lp320
(g136
S'8500000'
p321
tp322
aa(lp323
(g136
S'750000'
p324
tp325
aa(lp326
(S'19'
p327
S'17500000'
p328
tp329
a(S'16'
p330
S'29500000'
p331
tp332
a(S'19'
p333
S'17750000'
p334
tp335
a(S'17'
p336
S'48500000'
p337
tp338
a(S'19'
p339
S'18000000'
p340
tp341
a(S'22'
p342
S'29500000'
p343
tp344
aa(lp345
(g5
S'28000000'
p346
tp347
a(S'21'
p348
S'31250000'
p349
tp350
aa(lp351
(S'12'
p352
S'126750000'
p353
tp354
a(S'12'
p355
S'127250000'
p356
tp357
a(g52
S'6250000'
p358
tp359
a(g52
S'7500000'
p360
tp361
a(g52
S'5750000'
p362
tp363
a(g52
S'6750000'
p364
tp365
a(g52
S'6000000'
p366
tp367
a(g52
S'7000000'
p368
tp369
a(g52
S'7250000'
p370
tp371
a(g52
S'5500000'
p372
tp373
a(g52
S'6500000'
p374
tp375
a(g52
S'7750000'
p376
tp377
aa(lp378
(S'10'
p379
S'76000000'
p380
tp381
a(S'10'
p382
S'76250000'
p383
tp384
a(S'10'
p385
S'76500000'
p386
tp387
aa(lp388
(S'15'
p389
S'65250000'
p390
tp391
a(g2
S'218750000'
p392
tp393
a(g9
S'132750000'
p394
tp395
a(S'11'
p396
S'75250000'
p397
tp398
a(S'15'
p399
S'65000000'
p400
tp401
a(g42
S'201750000'
p402
tp403
aa(lp404
(g136
S'43250000'
p405
tp406
aa(lp407
(S'13'
p408
S'55000000'
p409
tp410
a(S'13'
p411
S'54750000'
p412
tp413
a(S'21'
p414
S'24000000'
p415
tp416
a(S'14'
p417
S'28250000'
p418
tp419
a(S'21'
p420
S'22000000'
p421
tp422
a(S'14'
p423
S'28750000'
p424
tp425
a(S'13'
p426
S'57000000'
p427
tp428
a(S'13'
p429
S'55500000'
p430
tp431
a(S'13'
p432
S'55250000'
p433
tp434
a(S'13'
p435
S'56750000'
p436
tp437
a(S'18'
p438
S'1500000'
p439
tp440
a(S'21'
p441
S'20750000'
p442
tp443
a(S'18'
p444
S'62750000'
p445
tp446
a(S'18'
p447
S'63750000'
p448
tp449
a(S'18'
p450
S'64000000'
p451
tp452
a(S'13'
p453
S'57750000'
p454
tp455
a(S'21'
p456
S'20000000'
p457
tp458
a(S'21'
p459
S'24250000'
p460
tp461
a(g5
S'25500000'
p462
tp463
a(S'21'
p464
S'21000000'
p465
tp466
a(S'18'
p467
S'62000000'
p468
tp469
a(S'18'
p470
S'63000000'
p471
tp472
a(S'18'
p473
S'62250000'
p474
tp475
a(S'21'
p476
S'21500000'
p477
tp478
a(S'13'
p479
S'56500000'
p480
tp481
a(S'18'
p482
S'1250000'
p483
tp484
a(S'13'
p485
S'54500000'
p486
tp487
a(S'18'
p488
S'62500000'
p489
tp490
a(S'13'
p491
S'54250000'
p492
tp493
a(S'18'
p494
S'64500000'
p495
tp496
a(S'18'
p497
S'63500000'
p498
tp499
a(S'21'
p500
S'24500000'
p501
tp502
a(S'13'
p503
S'54000000'
p504
tp505
a(S'21'
p506
S'25000000'
p507
tp508
a(S'14'
p509
S'27500000'
p510
tp511
a(S'21'
p512
S'19250000'
p513
tp514
a(S'13'
p515
S'58000000'
p516
tp517
a(S'21'
p518
S'23500000'
p519
tp520
a(S'13'
p521
S'57500000'
p522
tp523
a(S'13'
p524
S'56250000'
p525
tp526
a(S'13'
p527
S'55750000'
p528
tp529
a(S'14'
p530
S'28000000'
p531
tp532
a(S'14'
p533
S'28500000'
p534
tp535
a(S'21'
p536
S'20250000'
p537
tp538
a(S'14'
p539
S'27750000'
p540
tp541
a(S'21'
p542
S'21250000'
p543
tp544
a(S'21'
p545
S'23750000'
p546
tp547
a(S'18'
p548
S'63250000'
p549
tp550
a(S'21'
p551
S'21750000'
p552
tp553
a(S'21'
p554
S'19750000'
p555
tp556
a(S'13'
p557
S'57250000'
p558
tp559
a(S'21'
p560
S'20500000'
p561
tp562
a(S'21'
p563
S'24750000'
p564
tp565
a(S'18'
p566
S'64250000'
p567
tp568
a(S'13'
p569
S'56000000'
p570
tp571
a(S'18'
p572
S'1750000'
p573
tp574
a(S'21'
p575
S'19500000'
p576
tp577
aa(lp578
(S'11'
p579
S'1250000'
p580
tp581
a(S'21'
p582
S'46000000'
p583
tp584
a(g15
S'1000000'
p585
tp586
a(S'17'
p587
S'0'
p588
tp589
a(S'11'
p590
S'750000'
p591
tp592
a(S'4'
p593
S'750000'
p594
tp595
a(g74
S'145750000'
p596
tp597
a(g9
S'138250000'
p598
tp599
a(g9
S'139500000'
p600
tp601
a(g74
S'144750000'
p602
tp603
a(g15
S'750000'
p604
tp605
a(g9
S'140250000'
p606
tp607
a(S'11'
p608
S'500000'
p609
tp610
a(S'21'
p611
S'45750000'
p612
tp613
a(g15
S'250000'
p614
tp615
a(S'11'
p616
S'1750000'
p617
tp618
a(S'20'
p619
S'61000000'
p620
tp621
a(S'20'
p622
S'62750000'
p623
tp624
a(g9
S'139750000'
p625
tp626
a(g15
S'1500000'
p627
tp628
a(g74
S'144500000'
p629
tp630
a(g9
S'140000000'
p631
tp632
a(g74
S'146000000'
p633
tp634
a(S'16'
p635
S'89000000'
p636
tp637
a(g15
S'1250000'
p638
tp639
a(S'16'
p640
S'90000000'
p641
tp642
a(g593
S'1250000'
p643
tp644
a(S'16'
p645
S'1000000'
p646
tp647
a(g593
S'1500000'
p648
tp649
a(S'11'
p650
S'1500000'
p651
tp652
aa(lp653
(g2
S'236250000'
p654
tp655
a(g593
S'184750000'
p656
tp657
aa(lp658
(S'19'
p659
S'32000000'
p660
tp661
a(S'20'
p662
S'18750000'
p663
tp664
aa(lp665
(g15
S'54500000'
p666
tp667
a(g15
S'51750000'
p668
tp669
a(g15
S'54250000'
p670
tp671
a(g15
S'52250000'
p672
tp673
a(g15
S'53250000'
p674
tp675
a(g15
S'52750000'
p676
tp677
a(g15
S'53750000'
p678
tp679
a(g15
S'52000000'
p680
tp681
a(g15
S'53000000'
p682
tp683
a(g15
S'54000000'
p684
tp685
a(g15
S'52500000'
p686
tp687
a(g15
S'53500000'
p688
tp689
aa(lp690
(S'18'
p691
S'10500000'
p692
tp693
aa(lp694
(g52
S'97000000'
p695
tp696
a(g42
S'142750000'
p697
tp698
aa(lp699
(S'22'
p700
S'42750000'
p701
tp702
a(g42
S'24000000'
p703
tp704
a(S'10'
p705
S'71750000'
p706
tp707
a(S'17'
p708
S'40000000'
p709
tp710
a(S'11'
p711
S'72250000'
p712
tp713
a(S'15'
p714
S'43500000'
p715
tp716
aa(lp717
(g593
S'30250000'
p718
tp719
a(g593
S'30500000'
p720
tp721
aa(lp722
(S'19'
p723
S'47000000'
p724
tp725
a(S'16'
p726
S'85750000'
p727
tp728
a(S'22'
p729
S'37500000'
p730
tp731
a(S'19'
p732
S'47500000'
p733
tp734
a(S'19'
p735
S'47750000'
p736
tp737
a(S'17'
p738
S'38000000'
p739
tp740
a(S'20'
p741
S'35250000'
p742
tp743
aa(lp744
(S'15'
p745
S'40750000'
p746
tp747
a(S'10'
p748
S'75000000'
p749
tp750
a(g42
S'28000000'
p751
tp752
a(g136
S'35750000'
p753
tp754
aa(lp755
(S'17'
p756
S'3750000'
p757
tp758
a(S'17'
p759
S'3500000'
p760
tp761
aa(lp762
(g593
S'23000000'
p763
tp764
aa(lp765
(S'12'
p766
S'28000000'
p767
tp768
aa(lp769
(g52
S'500000'
p770
tp771
aa(lp772
(S'22'
p773
S'19250000'
p774
tp775
a(S'20'
p776
S'3000000'
p777
tp778
a(S'20'
p779
S'2750000'
p780
tp781
aa(lp782
(g136
S'1250000'
p783
tp784
aa(lp785
(g52
S'4500000'
p786
tp787
aa(lp788
(g9
S'40750000'
p789
tp790
a(S'15'
p791
S'54500000'
p792
tp793
aa(lp794
(g42
S'229500000'
p795
tp796
aa(lp797
(g593
S'123500000'
p798
tp799
a(g136
S'134250000'
p800
tp801
aa(lp802
(S'15'
p803
S'30250000'
p804
tp805
aa(lp806
(g9
S'87500000'
p807
tp808
aa(lp809
(S'16'
p810
S'54250000'
p811
tp812
aa(lp813
(g15
S'75500000'
p814
tp815
aa(lp816
(g42
S'92750000'
p817
tp818
aa(lp819
(g52
S'156250000'
p820
tp821
aa(lp822
(S'15'
p823
S'82500000'
p824
tp825
aa(lp826
(g136
S'131000000'
p827
tp828
a(g593
S'126250000'
p829
tp830
a(g15
S'78250000'
p831
tp832
a(g136
S'130500000'
p833
tp834
a(g593
S'124000000'
p835
tp836
a(g136
S'133500000'
p837
tp838
a(g15
S'77750000'
p839
tp840
a(g136
S'130250000'
p841
tp842
a(g15
S'78750000'
p843
tp844
a(g15
S'78000000'
p845
tp846
a(g15
S'77500000'
p847
tp848
a(g15
S'78500000'
p849
tp850
aa(lp851
(S'11'
p852
S'69000000'
p853
tp854
aa(lp855
(S'19'
p856
S'2000000'
p857
tp858
a(S'17'
p859
S'1500000'
p860
tp861
a(S'17'
p862
S'79000000'
p863
tp864
a(g9
S'136250000'
p865
tp866
a(S'21'
p867
S'47500000'
p868
tp869
a(S'16'
p870
S'2500000'
p871
tp872
a(S'16'
p873
S'88750000'
p874
tp875
a(S'20'
p876
S'62250000'
p877
tp878
a(S'17'
p879
S'78000000'
p880
tp881
a(S'22'
p882
S'41750000'
p883
tp884
a(S'20'
p885
S'35000000'
p886
tp887
a(S'22'
p888
S'39000000'
p889
tp890
a(S'22'
p891
S'38000000'
p892
tp893
a(S'17'
p894
S'42250000'
p895
tp896
a(g9
S'131000000'
p897
tp898
a(S'16'
p899
S'89500000'
p900
tp901
a(S'22'
p902
S'38750000'
p903
tp904
a(S'19'
p905
S'3000000'
p906
tp907
a(S'16'
p908
S'500000'
p909
tp910
a(S'19'
p911
S'2250000'
p912
tp913
a(S'15'
p914
S'75000000'
p915
tp916
a(g9
S'139250000'
p917
tp918
a(S'11'
p919
S'66000000'
p920
tp921
a(g9
S'131750000'
p922
tp923
a(g9
S'136000000'
p924
tp925
a(S'19'
p926
S'4000000'
p927
tp928
a(S'20'
p929
S'62500000'
p930
tp931
a(S'21'
p932
S'44500000'
p933
tp934
a(S'17'
p935
S'48000000'
p936
tp937
a(S'22'
p938
S'42250000'
p939
tp940
a(S'17'
p941
S'79750000'
p942
tp943
a(S'11'
p944
S'65500000'
p945
tp946
a(S'21'
p947
S'45500000'
p948
tp949
a(S'16'
p950
S'250000'
p951
tp952
a(S'16'
p953
S'2250000'
p954
tp955
a(S'22'
p956
S'30750000'
p957
tp958
a(S'16'
p959
S'88500000'
p960
tp961
a(S'22'
p962
S'42000000'
p963
tp964
a(S'20'
p965
S'62000000'
p966
tp967
a(S'16'
p968
S'1250000'
p969
tp970
a(S'11'
p971
S'64000000'
p972
tp973
a(S'20'
p974
S'61500000'
p975
tp976
a(S'17'
p977
S'42000000'
p978
tp979
a(S'17'
p980
S'73750000'
p981
tp982
a(S'17'
p983
S'80250000'
p984
tp985
a(S'17'
p986
S'80500000'
p987
tp988
a(g9
S'139000000'
p989
tp990
a(S'16'
p991
S'2750000'
p992
tp993
a(S'17'
p994
S'79500000'
p995
tp996
a(S'16'
p997
S'87250000'
p998
tp999
a(g9
S'135000000'
p1000
tp1001
a(g74
S'145500000'
p1002
tp1003
a(S'19'
p1004
S'3500000'
p1005
tp1006
a(S'16'
p1007
S'2000000'
p1008
tp1009
a(S'11'
p1010
S'250000'
p1011
tp1012
a(S'11'
p1013
S'68000000'
p1014
tp1015
a(S'11'
p1016
S'64750000'
p1017
tp1018
a(S'16'
p1019
S'3000000'
p1020
tp1021
a(g9
S'135750000'
p1022
tp1023
a(S'17'
p1024
S'80000000'
p1025
tp1026
a(S'14'
p1027
S'102750000'
p1028
tp1029
a(S'15'
p1030
S'41000000'
p1031
tp1032
a(S'11'
p1033
S'67000000'
p1034
tp1035
a(S'19'
p1036
S'500000'
p1037
tp1038
a(S'22'
p1039
S'38250000'
p1040
tp1041
a(S'20'
p1042
S'34000000'
p1043
tp1044
a(S'20'
p1045
S'61750000'
p1046
tp1047
a(S'11'
p1048
S'67750000'
p1049
tp1050
a(S'19'
p1051
S'1500000'
p1052
tp1053
a(S'15'
p1054
S'40500000'
p1055
tp1056
a(S'16'
p1057
g588
tp1058
a(g9
S'136750000'
p1059
tp1060
a(S'20'
p1061
S'60750000'
p1062
tp1063
a(S'19'
p1064
S'2750000'
p1065
tp1066
a(S'17'
p1067
S'40750000'
p1068
tp1069
a(S'19'
p1070
S'4250000'
p1071
tp1072
a(S'20'
p1073
S'61250000'
p1074
tp1075
a(S'19'
p1076
S'4500000'
p1077
tp1078
a(S'17'
p1079
S'73500000'
p1080
tp1081
a(S'16'
p1082
S'89750000'
p1083
tp1084
a(S'22'
p1085
S'20000000'
p1086
tp1087
a(S'21'
p1088
S'45000000'
p1089
tp1090
a(g9
S'130500000'
p1091
tp1092
a(g9
S'134250000'
p1093
tp1094
a(S'17'
p1095
S'79250000'
p1096
tp1097
a(S'16'
p1098
S'750000'
p1099
tp1100
a(g9
S'131500000'
p1101
tp1102
a(S'17'
p1103
S'78250000'
p1104
tp1105
a(S'16'
p1106
S'1750000'
p1107
tp1108
a(S'17'
p1109
S'39750000'
p1110
tp1111
a(S'22'
p1112
S'39750000'
p1113
tp1114
a(S'19'
p1115
S'750000'
p1116
tp1117
a(g9
S'131250000'
p1118
tp1119
a(S'11'
p1120
S'64500000'
p1121
tp1122
a(S'19'
p1123
S'1250000'
p1124
tp1125
a(S'22'
p1126
S'31250000'
p1127
tp1128
a(S'19'
p1129
S'1750000'
p1130
tp1131
aa(lp1132
(g5
S'168500000'
p1133
tp1134
a(g2
S'222750000'
p1135
tp1136
a(g5
S'168250000'
p1137
tp1138
a(g2
S'223000000'
p1139
tp1140
a(g5
S'168000000'
p1141
tp1142
a(g5
S'168750000'
p1143
tp1144
a(g593
S'182000000'
p1145
tp1146
a(g593
S'182250000'
p1147
tp1148
a(g2
S'224000000'
p1149
tp1150
aa(lp1151
(S'12'
p1152
S'50250000'
p1153
tp1154
aa(lp1155
(g52
S'86750000'
p1156
tp1157
aa(lp1158
(S'19'
p1159
S'50250000'
p1160
tp1161
a(S'22'
p1162
S'20250000'
p1163
tp1164
a(S'21'
p1165
S'48000000'
p1166
tp1167
aa(lp1168
(S'17'
p1169
S'50250000'
p1170
tp1171
a(S'17'
p1172
S'52000000'
p1173
tp1174
a(S'18'
p1175
S'69500000'
p1176
tp1177
a(S'21'
p1178
S'23250000'
p1179
tp1180
a(S'18'
p1181
S'70000000'
p1182
tp1183
a(S'18'
p1184
S'68750000'
p1185
tp1186
a(S'18'
p1187
S'69750000'
p1188
tp1189
a(S'18'
p1190
S'70250000'
p1191
tp1192
a(S'18'
p1193
S'69000000'
p1194
tp1195
a(S'17'
p1196
S'51750000'
p1197
tp1198
a(S'17'
p1199
S'52250000'
p1200
tp1201
a(S'18'
p1202
S'68500000'
p1203
tp1204
a(S'18'
p1205
S'69250000'
p1206
tp1207
aa(lp1208
(S'15'
p1209
S'77750000'
p1210
tp1211
aa(lp1212
(S'13'
p1213
S'42500000'
p1214
tp1215
a(S'13'
p1216
S'42250000'
p1217
tp1218
a(S'15'
p1219
S'67750000'
p1220
tp1221
aa(lp1222
(g593
S'34000000'
p1223
tp1224
aa(lp1225
(S'11'
p1226
S'20750000'
p1227
tp1228
a(S'11'
p1229
S'21500000'
p1230
tp1231
a(S'11'
p1232
S'21000000'
p1233
tp1234
a(S'11'
p1235
S'21750000'
p1236
tp1237
aa(lp1238
(S'21'
p1239
S'44000000'
p1240
tp1241
a(S'11'
p1242
S'1000000'
p1243
tp1244
a(g15
S'500000'
p1245
tp1246
a(g593
S'500000'
p1247
tp1248
aa(lp1249
(g5
S'63250000'
p1250
tp1251
aa(lp1252
(g2
S'194000000'
p1253
tp1254
aa(lp1255
(g42
S'246250000'
p1256
tp1257
a(g42
S'246500000'
p1258
tp1259
a(g42
S'246000000'
p1260
tp1261
a(g593
S'183500000'
p1262
tp1263
a(g42
S'245750000'
p1264
tp1265
aa(lp1266
(g74
S'108500000'
p1267
tp1268
aa(lp1269
(S'15'
p1270
S'72000000'
p1271
tp1272
a(g136
S'34750000'
p1273
tp1274
a(g42
S'202250000'
p1275
tp1276
a(S'11'
p1277
S'72500000'
p1278
tp1279
aa(lp1280
(g136
S'92500000'
p1281
tp1282
aa(lp1283
(S'20'
p1284
S'16000000'
p1285
tp1286
aa(lp1287
(g52
S'67000000'
p1288
tp1289
aa(lp1290
(S'14'
p1291
S'21500000'
p1292
tp1293
aa(lp1294
(g52
S'4250000'
p1295
tp1296
aa(lp1297
(g42
S'166500000'
p1298
tp1299
a(g42
S'166000000'
p1300
tp1301
a(g42
S'166250000'
p1302
tp1303
aa(lp1304
(g74
S'4250000'
p1305
tp1306
a(g5
S'4250000'
p1307
tp1308
a(S'10'
p1309
S'1250000'
p1310
tp1311
a(S'16'
p1312
S'8000000'
p1313
tp1314
a(S'20'
p1315
S'40500000'
p1316
tp1317
a(S'10'
p1318
S'2500000'
p1319
tp1320
a(g5
S'2250000'
p1321
tp1322
a(g74
S'1250000'
p1323
tp1324
a(g5
S'5750000'
p1325
tp1326
a(S'16'
p1327
S'5750000'
p1328
tp1329
a(g74
S'3250000'
p1330
tp1331
a(g74
S'3500000'
p1332
tp1333
a(g5
S'3250000'
p1334
tp1335
a(g74
S'2250000'
p1336
tp1337
a(g5
S'3750000'
p1338
tp1339
a(g5
S'6000000'
p1340
tp1341
a(g5
S'2500000'
p1342
tp1343
a(S'19'
p1344
S'56250000'
p1345
tp1346
a(S'22'
p1347
S'49250000'
p1348
tp1349
a(S'16'
p1350
S'5250000'
p1351
tp1352
a(S'10'
p1353
S'1750000'
p1354
tp1355
a(S'21'
p1356
S'41000000'
p1357
tp1358
a(S'22'
p1359
S'48250000'
p1360
tp1361
a(g5
S'4000000'
p1362
tp1363
a(g74
S'3000000'
p1364
tp1365
a(S'16'
p1366
S'7500000'
p1367
tp1368
a(S'10'
p1369
S'2250000'
p1370
tp1371
a(g5
S'4750000'
p1372
tp1373
a(g5
S'5000000'
p1374
tp1375
a(S'20'
p1376
S'40750000'
p1377
tp1378
a(S'16'
p1379
S'6750000'
p1380
tp1381
a(S'20'
p1382
S'41500000'
p1383
tp1384
a(g5
S'5500000'
p1385
tp1386
a(g5
S'2750000'
p1387
tp1388
a(S'16'
p1389
S'6000000'
p1390
tp1391
a(S'22'
p1392
S'49500000'
p1393
tp1394
a(S'16'
p1395
S'7000000'
p1396
tp1397
a(S'22'
p1398
S'48500000'
p1399
tp1400
a(g74
S'1000000'
p1401
tp1402
a(S'16'
p1403
S'5500000'
p1404
tp1405
a(g5
S'3500000'
p1406
tp1407
a(S'21'
p1408
S'42250000'
p1409
tp1410
a(S'16'
p1411
S'6500000'
p1412
tp1413
a(S'20'
p1414
S'41000000'
p1415
tp1416
a(S'21'
p1417
S'41750000'
p1418
tp1419
a(S'21'
p1420
S'41250000'
p1421
tp1422
a(g5
S'2000000'
p1423
tp1424
a(g5
S'4500000'
p1425
tp1426
a(g5
S'3000000'
p1427
tp1428
a(S'22'
p1429
S'47750000'
p1430
tp1431
a(S'16'
p1432
S'7250000'
p1433
tp1434
a(S'16'
p1435
S'8250000'
p1436
tp1437
a(S'21'
p1438
S'42000000'
p1439
tp1440
a(S'21'
p1441
S'41500000'
p1442
tp1443
a(S'22'
p1444
S'49750000'
p1445
tp1446
a(S'20'
p1447
S'41250000'
p1448
tp1449
a(S'22'
p1450
S'48750000'
p1451
tp1452
a(g74
S'3750000'
p1453
tp1454
a(g74
S'750000'
p1455
tp1456
a(S'16'
p1457
S'6250000'
p1458
tp1459
a(g74
S'5250000'
p1460
tp1461
a(S'22'
p1462
S'49000000'
p1463
tp1464
a(S'10'
p1465
S'2000000'
p1466
tp1467
a(S'16'
p1468
S'7750000'
p1469
tp1470
a(S'22'
p1471
S'48000000'
p1472
tp1473
aa(lp1474
(S'15'
p1475
S'67250000'
p1476
tp1477
a(g42
S'201500000'
p1478
tp1479
a(S'17'
p1480
S'75250000'
p1481
tp1482
aa(lp1483
(g9
S'136500000'
p1484
tp1485
a(g15
S'2000000'
p1486
tp1487
a(S'16'
p1488
S'3500000'
p1489
tp1490
a(S'21'
p1491
S'45250000'
p1492
tp1493
a(g593
S'3000000'
p1494
tp1495
a(S'11'
p1496
S'68250000'
p1497
tp1498
a(S'11'
p1499
S'68500000'
p1500
tp1501
a(g15
S'1750000'
p1502
tp1503
a(g593
S'3250000'
p1504
tp1505
aa(lp1506
(g15
S'152500000'
p1507
tp1508
a(S'11'
p1509
S'133750000'
p1510
tp1511
a(S'12'
p1512
S'132000000'
p1513
tp1514
a(g15
S'155500000'
p1515
tp1516
a(S'10'
p1517
S'131750000'
p1518
tp1519
a(S'10'
p1520
S'131500000'
p1521
tp1522
a(g42
S'3000000'
p1523
tp1524
a(g15
S'156250000'
p1525
tp1526
a(g74
S'143500000'
p1527
tp1528
a(g42
S'3250000'
p1529
tp1530
a(S'12'
p1531
S'131250000'
p1532
tp1533
a(g42
S'3500000'
p1534
tp1535
a(S'11'
p1536
S'134000000'
p1537
tp1538
aa(lp1539
(g2
S'210750000'
p1540
tp1541
aa(lp1542
(S'19'
p1543
S'53750000'
p1544
tp1545
a(S'19'
p1546
S'53500000'
p1547
tp1548
aa(lp1549
(S'10'
p1550
S'119750000'
p1551
tp1552
aa(lp1553
(g42
S'1750000'
p1554
tp1555
a(g5
S'178750000'
p1556
tp1557
aa(lp1558
(g74
S'141000000'
p1559
tp1560
a(g74
S'141250000'
p1561
tp1562
a(g15
S'156500000'
p1563
tp1564
aa(lp1565
(g9
g588
tp1566
aa(lp1567
(S'13'
p1568
S'112750000'
p1569
tp1570
a(S'14'
p1571
S'99000000'
p1572
tp1573
a(S'18'
p1574
S'76000000'
p1575
tp1576
a(S'18'
p1577
S'75500000'
p1578
tp1579
a(S'13'
p1580
S'112500000'
p1581
tp1582
a(S'18'
p1583
S'75750000'
p1584
tp1585
a(S'14'
p1586
S'97500000'
p1587
tp1588
a(S'13'
p1589
S'112250000'
p1590
tp1591
a(S'18'
p1592
S'76250000'
p1593
tp1594
a(S'18'
p1595
S'76500000'
p1596
tp1597
a(S'18'
p1598
S'75250000'
p1599
tp1600
a(S'14'
p1601
S'98500000'
p1602
tp1603
a(S'14'
p1604
S'97750000'
p1605
tp1606
a(S'18'
p1607
S'75000000'
p1608
tp1609
a(S'14'
p1610
S'98750000'
p1611
tp1612
aa(lp1613
(g2
S'210500000'
p1614
tp1615
a(g593
S'179500000'
p1616
tp1617
aa(lp1618
(g15
S'71250000'
p1619
tp1620
a(g15
S'68250000'
p1621
tp1622
a(g15
S'67000000'
p1623
tp1624
a(g15
S'69750000'
p1625
tp1626
a(g15
S'71000000'
p1627
tp1628
a(g15
S'70500000'
p1629
tp1630
a(g15
S'71500000'
p1631
tp1632
aa(lp1633
(S'12'
p1634
S'49250000'
p1635
tp1636
a(S'17'
p1637
S'38250000'
p1638
tp1639
a(S'12'
p1640
S'49500000'
p1641
tp1642
aa(lp1643
(g52
S'35750000'
p1644
tp1645
aa(lp1646
(S'17'
p1647
S'73250000'
p1648
tp1649
a(S'22'
p1650
S'31500000'
p1651
tp1652
a(S'15'
p1653
S'76000000'
p1654
tp1655
aa(lp1656
(S'15'
p1657
S'42750000'
p1658
tp1659
a(S'11'
p1660
S'65750000'
p1661
tp1662
a(S'10'
p1663
S'70250000'
p1664
tp1665
a(S'17'
p1666
S'37500000'
p1667
tp1668
a(S'15'
p1669
S'43000000'
p1670
tp1671
aa(lp1672
(g52
S'62250000'
p1673
tp1674
aa(lp1675
(g2
S'82750000'
p1676
tp1677
aa(lp1678
(S'21'
p1679
S'46500000'
p1680
tp1681
a(S'22'
p1682
S'38500000'
p1683
tp1684
a(g9
S'132250000'
p1685
tp1686
a(S'11'
p1687
S'68750000'
p1688
tp1689
a(S'21'
p1690
S'46750000'
p1691
tp1692
a(S'19'
p1693
S'1000000'
p1694
tp1695
a(S'22'
p1696
S'43000000'
p1697
tp1698
a(S'17'
p1699
S'76750000'
p1700
tp1701
a(S'16'
p1702
S'88250000'
p1703
tp1704
a(S'21'
p1705
S'46250000'
p1706
tp1707
a(S'17'
p1708
S'76250000'
p1709
tp1710
a(S'16'
p1711
S'88000000'
p1712
tp1713
aa(lp1714
(g2
S'154500000'
p1715
tp1716
aa(lp1717
(S'12'
p1718
S'1000000'
p1719
tp1720
a(S'12'
p1721
S'1250000'
p1722
tp1723
a(S'11'
p1724
S'75500000'
p1725
tp1726
a(S'10'
p1727
S'74500000'
p1728
tp1729
a(S'22'
p1730
S'40500000'
p1731
tp1732
a(S'10'
p1733
S'74250000'
p1734
tp1735
a(S'15'
p1736
S'42500000'
p1737
tp1738
a(S'15'
p1739
S'73250000'
p1740
tp1741
a(g9
S'128500000'
p1742
tp1743
a(g9
S'128250000'
p1744
tp1745
aa(lp1746
(S'20'
p1747
S'47000000'
p1748
tp1749
a(S'20'
p1750
S'46750000'
p1751
tp1752
aa(lp1753
(g2
S'124000000'
p1754
tp1755
aa(lp1756
(g5
S'167000000'
p1757
tp1758
a(g593
S'189250000'
p1759
tp1760
a(g2
S'225000000'
p1761
tp1762
aa(lp1763
(g52
S'145250000'
p1764
tp1765
aa(lp1766
(S'17'
p1767
S'62750000'
p1768
tp1769
aa(lp1770
(g74
S'83250000'
p1771
tp1772
a(g74
S'84750000'
p1773
tp1774
a(g74
S'83750000'
p1775
tp1776
a(g74
S'85250000'
p1777
tp1778
a(g74
S'83500000'
p1779
tp1780
aa(lp1781
(S'22'
p1782
S'34500000'
p1783
tp1784
a(S'20'
p1785
S'53750000'
p1786
tp1787
a(S'20'
p1788
S'54250000'
p1789
tp1790
a(S'22'
p1791
S'34750000'
p1792
tp1793
a(S'20'
p1794
S'53250000'
p1795
tp1796
a(S'20'
p1797
S'54500000'
p1798
tp1799
a(S'20'
p1800
S'54000000'
p1801
tp1802
a(S'20'
p1803
S'53500000'
p1804
tp1805
aa(lp1806
(S'18'
p1807
S'78000000'
p1808
tp1809
a(S'19'
p1810
S'59000000'
p1811
tp1812
aa(lp1813
(S'14'
p1814
S'25750000'
p1815
tp1816
aa(lp1817
(g42
S'34750000'
p1818
tp1819
a(g42
S'34000000'
p1820
tp1821
a(g42
S'34250000'
p1822
tp1823
a(g74
S'142500000'
p1824
tp1825
a(g42
S'35000000'
p1826
tp1827
a(g42
S'34500000'
p1828
tp1829
aa(lp1830
(g593
S'183250000'
p1831
tp1832
a(g2
S'225750000'
p1833
tp1834
a(g42
S'240250000'
p1835
tp1836
a(g42
S'240500000'
p1837
tp1838
a(g593
S'183000000'
p1839
tp1840
a(g2
S'224750000'
p1841
tp1842
a(g42
S'240750000'
p1843
tp1844
aa(lp1845
(S'18'
p1846
S'10750000'
p1847
tp1848
a(S'18'
p1849
S'11000000'
p1850
tp1851
aa(lp1852
(g74
S'64750000'
p1853
tp1854
a(g74
S'64250000'
p1855
tp1856
aa(lp1857
(g5
S'70500000'
p1858
tp1859
a(g593
S'65250000'
p1860
tp1861
aa(lp1862
(g52
S'48750000'
p1863
tp1864
a(g52
S'49000000'
p1865
tp1866
aa(lp1867
(S'10'
p1868
S'87500000'
p1869
tp1870
aa(lp1871
(g136
S'85750000'
p1872
tp1873
aa(lp1874
(S'16'
p1875
S'87750000'
p1876
tp1877
a(S'19'
p1878
S'2500000'
p1879
tp1880
a(S'15'
p1881
S'74250000'
p1882
tp1883
a(S'15'
p1884
S'74500000'
p1885
tp1886
a(g42
S'21500000'
p1887
tp1888
a(S'10'
p1889
S'73500000'
p1890
tp1891
a(S'22'
p1892
S'39500000'
p1893
tp1894
a(S'17'
p1895
S'43250000'
p1896
tp1897
a(S'11'
p1898
S'75000000'
p1899
tp1900
a(g9
S'130250000'
p1901
tp1902
aa(lp1903
(S'12'
p1904
S'53000000'
p1905
tp1906
a(S'12'
p1907
S'52750000'
p1908
tp1909
aa(lp1910
(g52
S'167500000'
p1911
tp1912
aa(lp1913
(g42
S'60250000'
p1914
tp1915
aa(lp1916
(S'22'
p1917
S'44250000'
p1918
tp1919
a(S'16'
p1920
S'85250000'
p1921
tp1922
a(S'17'
p1923
S'1000000'
p1924
tp1925
a(S'16'
p1926
S'85500000'
p1927
tp1928
a(S'19'
p1929
S'18500000'
p1930
tp1931
a(S'19'
p1932
S'18750000'
p1933
tp1934
a(S'22'
p1935
S'45000000'
p1936
tp1937
aa(lp1938
(S'18'
p1939
S'47750000'
p1940
tp1941
a(S'18'
p1942
S'48250000'
p1943
tp1944
aa(lp1945
(g136
S'26750000'
p1946
tp1947
a(g9
S'40500000'
p1948
tp1949
aa(lp1950
(g42
S'210500000'
p1951
tp1952
aa(lp1953
(g15
S'115750000'
p1954
tp1955
aa(lp1956
(S'10'
p1957
S'56000000'
p1958
tp1959
aa(lp1960
(g42
S'76500000'
p1961
tp1962
a(g42
S'77000000'
p1963
tp1964
aa(lp1965
(g74
S'6250000'
p1966
tp1967
aa(lp1968
(S'21'
p1969
S'34000000'
p1970
tp1971
a(S'20'
p1972
S'2500000'
p1973
tp1974
aa(lp1975
(S'12'
p1976
S'27500000'
p1977
tp1978
a(S'12'
p1979
S'27250000'
p1980
tp1981
aa(lp1982
(g52
S'149000000'
p1983
tp1984
a(g52
S'149250000'
p1985
tp1986
aa(lp1987
(S'22'
p1988
S'33750000'
p1989
tp1990
a(S'22'
p1991
S'34000000'
p1992
tp1993
aa(lp1994
(g52
S'42250000'
p1995
tp1996
aa(lp1997
(g15
S'97250000'
p1998
tp1999
aa(lp2000
(S'14'
p2001
S'29000000'
p2002
tp2003
a(S'21'
p2004
S'22250000'
p2005
tp2006
a(S'14'
p2007
S'29250000'
p2008
tp2009
aa(lp2010
(g5
S'179500000'
p2011
tp2012
a(g42
S'6000000'
p2013
tp2014
a(g5
S'180000000'
p2015
tp2016
a(g42
S'6250000'
p2017
tp2018
a(g136
S'170750000'
p2019
tp2020
aa(lp2021
(g52
S'125750000'
p2022
tp2023
a(g52
S'125500000'
p2024
tp2025
aa(lp2026
(g42
S'102000000'
p2027
tp2028
a(g42
S'102250000'
p2029
tp2030
a(g42
S'103750000'
p2031
tp2032
aa(lp2033
(g74
S'124750000'
p2034
tp2035
a(g74
S'125000000'
p2036
tp2037
aa(lp2038
(g42
S'183750000'
p2039
tp2040
a(g42
S'184000000'
p2041
tp2042
aa(lp2043
(g593
S'187000000'
p2044
tp2045
a(g2
S'237250000'
p2046
tp2047
a(g2
S'237750000'
p2048
tp2049
a(g5
S'174250000'
p2050
tp2051
a(g2
S'237000000'
p2052
tp2053
aa(lp2054
(S'22'
p2055
S'37000000'
p2056
tp2057
a(S'11'
p2058
S'64250000'
p2059
tp2060
a(S'10'
p2061
S'72750000'
p2062
tp2063
a(S'22'
p2064
S'37250000'
p2065
tp2066
a(S'11'
p2067
S'67250000'
p2068
tp2069
a(S'17'
p2070
S'77000000'
p2071
tp2072
a(S'10'
p2073
S'72500000'
p2074
tp2075
a(g9
S'133000000'
p2076
tp2077
a(S'16'
p2078
S'3250000'
p2079
tp2080
a(S'17'
p2081
S'74750000'
p2082
tp2083
a(S'15'
p2084
S'69000000'
p2085
tp2086
a(S'15'
p2087
S'66250000'
p2088
tp2089
a(S'10'
p2090
S'73250000'
p2091
tp2092
a(S'17'
p2093
S'77500000'
p2094
tp2095
a(S'17'
p2096
S'77250000'
p2097
tp2098
a(S'10'
p2099
S'73000000'
p2100
tp2101
a(S'20'
p2102
S'34750000'
p2103
tp2104
a(g9
S'135500000'
p2105
tp2106
a(g9
S'135250000'
p2107
tp2108
a(S'22'
p2109
S'43750000'
p2110
tp2111
aa(lp2112
(g9
S'129000000'
p2113
tp2114
a(g2
S'25000000'
p2115
tp2116
aa(lp2117
(g42
S'100750000'
p2118
tp2119
aa(lp2120
(S'21'
p2121
S'36500000'
p2122
tp2123
a(S'17'
p2124
S'39500000'
p2125
tp2126
a(S'16'
p2127
S'86750000'
p2128
tp2129
a(S'21'
p2130
S'36750000'
p2131
tp2132
a(S'17'
p2133
S'39250000'
p2134
tp2135
a(S'21'
p2136
S'37000000'
p2137
tp2138
a(S'17'
p2139
S'39000000'
p2140
tp2141
aa(lp2142
(g52
S'180500000'
p2143
tp2144
aa(lp2145
(g74
S'5500000'
p2146
tp2147
aa(lp2148
(g593
S'163750000'
p2149
tp2150
a(g593
S'164000000'
p2151
tp2152
aa(lp2153
(g15
S'8750000'
p2154
tp2155
aa(lp2156
(S'14'
p2157
S'46500000'
p2158
tp2159
aa(lp2160
(S'20'
p2161
S'57750000'
p2162
tp2163
a(S'21'
p2164
S'40750000'
p2165
tp2166
a(S'22'
p2167
S'33250000'
p2168
tp2169
a(S'22'
p2170
S'33500000'
p2171
tp2172
aa(lp2173
(g52
S'171250000'
p2174
tp2175
a(g52
S'170750000'
p2176
tp2177
aa(lp2178
(g42
S'241500000'
p2179
tp2180
aa(lp2181
(g136
S'170250000'
p2182
tp2183
a(g42
S'13750000'
p2184
tp2185
aa(lp2186
(S'11'
p2187
S'114250000'
p2188
tp2189
aa(lp2190
(g2
S'27250000'
p2191
tp2192
a(g15
S'128500000'
p2193
tp2194
a(S'10'
p2195
S'105000000'
p2196
tp2197
a(g52
S'196500000'
p2198
tp2199
a(g2
S'27500000'
p2200
tp2201
a(g42
S'202750000'
p2202
tp2203
a(S'12'
p2204
S'124000000'
p2205
tp2206
a(S'10'
p2207
S'103750000'
p2208
tp2209
a(g52
S'196250000'
p2210
tp2211
a(g2
S'219250000'
p2212
tp2213
a(g15
S'128000000'
p2214
tp2215
a(S'12'
p2216
S'120750000'
p2217
tp2218
aa(lp2219
(g42
S'232750000'
p2220
tp2221
a(g5
S'173750000'
p2222
tp2223
a(g5
S'174000000'
p2224
tp2225
a(g593
S'185000000'
p2226
tp2227
aa(lp2228
(g74
S'138000000'
p2229
tp2230
aa(lp2231
(S'15'
p2232
S'30500000'
p2233
tp2234
a(S'14'
p2235
S'47000000'
p2236
tp2237
aa(lp2238
(g593
S'97250000'
p2239
tp2240
aa(lp2241
(S'19'
p2242
g588
tp2243
a(g9
S'141000000'
p2244
tp2245
aa(lp2246
(g9
S'87250000'
p2247
tp2248
aa(lp2249
(g5
S'28500000'
p2250
tp2251
aa(lp2252
(g52
S'74750000'
p2253
tp2254
aa(lp2255
(S'10'
p2256
S'29500000'
p2257
tp2258
aa(lp2259
(g42
S'235000000'
p2260
tp2261
a(g42
S'234500000'
p2262
tp2263
aa(lp2264
(g593
S'33750000'
p2265
tp2266
a(g593
S'34250000'
p2267
tp2268
aa(lp2269
(g136
S'33500000'
p2270
tp2271
aa(lp2272
(S'20'
p2273
S'48750000'
p2274
tp2275
a(S'20'
p2276
S'48500000'
p2277
tp2278
a(S'21'
p2279
S'47250000'
p2280
tp2281
a(S'22'
p2282
S'30500000'
p2283
tp2284
aa(lp2285
(S'11'
p2286
S'40750000'
p2287
tp2288
aa(lp2289
(g2
S'4750000'
p2290
tp2291
aa(lp2292
(g15
S'109000000'
p2293
tp2294
aa(lp2295
(g52
S'1500000'
p2296
tp2297
aa(lp2298
(S'10'
p2299
S'49250000'
p2300
tp2301
aa(lp2302
(S'22'
p2303
S'18250000'
p2304
tp2305
aa(lp2306
(g593
S'190750000'
p2307
tp2308
aa(lp2309
(g2
S'213000000'
p2310
tp2311
a(g593
S'179000000'
p2312
tp2313
a(g2
S'213250000'
p2314
tp2315
a(g2
S'212500000'
p2316
tp2317
aa(lp2318
(S'17'
p2319
S'47250000'
p2320
tp2321
a(S'19'
p2322
S'45500000'
p2323
tp2324
a(S'20'
p2325
S'34500000'
p2326
tp2327
a(g42
S'27500000'
p2328
tp2329
a(S'19'
p2330
S'45750000'
p2331
tp2332
a(g9
S'134000000'
p2333
tp2334
a(S'15'
p2335
S'75250000'
p2336
tp2337
a(S'15'
p2338
S'74750000'
p2339
tp2340
aa(lp2341
(S'14'
p2342
S'41500000'
p2343
tp2344
a(S'14'
p2345
S'40750000'
p2346
tp2347
a(S'14'
p2348
S'41250000'
p2349
tp2350
a(S'14'
p2351
S'41750000'
p2352
tp2353
a(S'14'
p2354
S'40000000'
p2355
tp2356
a(S'14'
p2357
S'40500000'
p2358
tp2359
a(g42
S'143500000'
p2360
tp2361
a(S'14'
p2362
S'41000000'
p2363
tp2364
a(S'14'
p2365
S'40250000'
p2366
tp2367
aa(lp2368
(g42
S'18500000'
p2369
tp2370
aa(lp2371
(g136
S'93250000'
p2372
tp2373
aa(lp2374
(g593
S'167500000'
p2375
tp2376
aa(lp2377
(g2
S'14250000'
p2378
tp2379
aa(lp2380
(S'12'
p2381
S'53500000'
p2382
tp2383
a(g593
S'1000000'
p2384
tp2385
a(S'12'
p2386
S'53250000'
p2387
tp2388
aa(lp2389
(g52
S'47000000'
p2390
tp2391
a(S'12'
p2392
S'123500000'
p2393
tp2394
a(g42
S'21000000'
p2395
tp2396
aa(lp2397
(g42
S'237750000'
p2398
tp2399
aa(lp2400
(S'15'
p2401
S'67500000'
p2402
tp2403
aa(lp2404
(g136
S'130000000'
p2405
tp2406
a(g593
S'124250000'
p2407
tp2408
a(g593
S'125000000'
p2409
tp2410
a(g74
S'121750000'
p2411
tp2412
a(g593
S'128000000'
p2413
tp2414
a(g74
S'122750000'
p2415
tp2416
a(g136
S'130750000'
p2417
tp2418
a(g74
S'123500000'
p2419
tp2420
a(g74
S'122500000'
p2421
tp2422
a(g136
S'134500000'
p2423
tp2424
a(g74
S'123250000'
p2425
tp2426
a(g593
S'124750000'
p2427
tp2428
a(g74
S'122250000'
p2429
tp2430
a(g593
S'127750000'
p2431
tp2432
a(g74
S'123000000'
p2433
tp2434
a(g74
S'122000000'
p2435
tp2436
a(g136
S'135000000'
p2437
tp2438
a(g593
S'124500000'
p2439
tp2440
a(g593
S'127500000'
p2441
tp2442
a(g136
S'134750000'
p2443
tp2444
aa(lp2445
(S'19'
p2446
S'42500000'
p2447
tp2448
a(S'19'
p2449
S'42750000'
p2450
tp2451
aa(lp2452
(g2
S'222500000'
p2453
tp2454
a(g52
S'189000000'
p2455
tp2456
aa(lp2457
(g5
S'137500000'
p2458
tp2459
a(g42
S'6500000'
p2460
tp2461
a(g5
S'137750000'
p2462
tp2463
aa(lp2464
(S'14'
p2465
S'81250000'
p2466
tp2467
a(S'14'
p2468
S'81000000'
p2469
tp2470
aa(lp2471
(g52
S'78500000'
p2472
tp2473
aa(lp2474
(g42
S'231250000'
p2475
tp2476
a(g5
S'172500000'
p2477
tp2478
aa(lp2479
(S'19'
p2480
S'48250000'
p2481
tp2482
a(S'17'
p2483
S'43750000'
p2484
tp2485
a(S'19'
p2486
S'48500000'
p2487
tp2488
aa(lp2489
(g136
S'35500000'
p2490
tp2491
a(S'15'
p2492
S'41750000'
p2493
tp2494
aa(lp2495
(g5
S'27000000'
p2496
tp2497
aa(lp2498
(g52
S'5250000'
p2499
tp2500
a(S'12'
p2501
S'128000000'
p2502
tp2503
a(S'12'
p2504
S'127750000'
p2505
tp2506
aa(lp2507
(g42
S'23500000'
p2508
tp2509
a(S'12'
p2510
S'122750000'
p2511
tp2512
a(g52
S'50000000'
p2513
tp2514
aa(lp2515
(g593
S'66500000'
p2516
tp2517
a(g593
S'66750000'
p2518
tp2519
a(g593
S'68000000'
p2520
tp2521
a(g593
S'67000000'
p2522
tp2523
a(g593
S'66250000'
p2524
tp2525
a(g593
S'65750000'
p2526
tp2527
a(g593
S'65500000'
p2528
tp2529
aa(lp2530
(g2
S'81250000'
p2531
tp2532
aa(lp2533
(g9
S'137500000'
p2534
tp2535
a(S'17'
p2536
S'75000000'
p2537
tp2538
aa(lp2539
(S'19'
p2540
S'54750000'
p2541
tp2542
a(g5
S'6500000'
p2543
tp2544
aa(lp2545
(g42
S'14750000'
p2546
tp2547
a(g42
S'14500000'
p2548
tp2549
aa(lp2550
(S'15'
p2551
S'32500000'
p2552
tp2553
a(g2
S'5000000'
p2554
tp2555
aa(lp2556
(g2
S'114000000'
p2557
tp2558
aa(lp2559
(g2
S'225500000'
p2560
tp2561
aa(lp2562
(g9
S'29250000'
p2563
tp2564
a(g9
S'32000000'
p2565
tp2566
a(g9
S'29000000'
p2567
tp2568
a(g9
S'28750000'
p2569
tp2570
a(g9
S'29750000'
p2571
tp2572
a(g9
S'30000000'
p2573
tp2574
a(g9
S'28500000'
p2575
tp2576
a(g9
S'29500000'
p2577
tp2578
aa(lp2579
(S'15'
p2580
S'27750000'
p2581
tp2582
a(S'15'
p2583
S'27250000'
p2584
tp2585
a(S'15'
p2586
S'27500000'
p2587
tp2588
aa(lp2589
(S'10'
p2590
S'87250000'
p2591
tp2592
aa(lp2593
(S'17'
p2594
S'81000000'
p2595
tp2596
a(g15
g588
tp2597
aa(lp2598
(g74
S'2500000'
p2599
tp2600
aa(lp2601
(S'15'
p2602
S'94000000'
p2603
tp2604
a(S'15'
p2605
S'93750000'
p2606
tp2607
a(S'15'
p2608
S'94250000'
p2609
tp2610
aa(lp2611
(g136
S'14500000'
p2612
tp2613
a(g136
S'14750000'
p2614
tp2615
aa(lp2616
(S'11'
p2617
S'73500000'
p2618
tp2619
a(g2
S'26000000'
p2620
tp2621
a(S'15'
p2622
S'65750000'
p2623
tp2624
a(S'10'
p2625
S'104500000'
p2626
tp2627
a(S'17'
p2628
S'41000000'
p2629
tp2630
aa(lp2631
(g2
S'235000000'
p2632
tp2633
a(g2
S'234750000'
p2634
tp2635
aa(lp2636
(g9
S'95750000'
p2637
tp2638
a(g9
S'96000000'
p2639
tp2640
aa(lp2641
(g5
S'164000000'
p2642
tp2643
a(g5
S'164750000'
p2644
tp2645
a(g5
S'165000000'
p2646
tp2647
a(g5
S'164500000'
p2648
tp2649
a(g2
S'229500000'
p2650
tp2651
a(g5
S'164250000'
p2652
tp2653
aa(lp2654
(S'20'
p2655
S'49750000'
p2656
tp2657
a(S'21'
p2658
S'44750000'
p2659
tp2660
aa(lp2661
(g136
S'67250000'
p2662
tp2663
aa(lp2664
(g2
S'116250000'
p2665
tp2666
a(g2
S'117000000'
p2667
tp2668
a(g2
S'117250000'
p2669
tp2670
a(g2
S'117500000'
p2671
tp2672
aa(lp2673
(g15
S'158500000'
p2674
tp2675
a(g2
S'3250000'
p2676
tp2677
a(g5
S'179250000'
p2678
tp2679
a(g136
S'167250000'
p2680
tp2681
a(g5
S'179000000'
p2682
tp2683
aa(lp2684
(S'19'
p2685
S'3750000'
p2686
tp2687
a(S'19'
p2688
S'250000'
p2689
tp2690
a(S'11'
p2691
S'70500000'
p2692
tp2693
a(S'11'
p2694
S'70250000'
p2695
tp2696
a(g9
S'138000000'
p2697
tp2698
a(g9
S'137750000'
p2699
tp2700
a(S'11'
p2701
S'71000000'
p2702
tp2703
aa(lp2704
(g42
S'147750000'
p2705
tp2706
aa(lp2707
(S'15'
p2708
S'69500000'
p2709
tp2710
a(S'22'
p2711
S'41000000'
p2712
tp2713
aa(lp2714
(S'20'
p2715
S'20500000'
p2716
tp2717
a(S'19'
p2718
S'33500000'
p2719
tp2720
aa(lp2721
(S'18'
p2722
S'11750000'
p2723
tp2724
aa(lp2725
(S'12'
p2726
S'71500000'
p2727
tp2728
aa(lp2729
(g5
S'167500000'
p2730
tp2731
a(g42
S'228000000'
p2732
tp2733
aa(lp2734
(g52
S'49750000'
p2735
tp2736
a(g52
S'49500000'
p2737
tp2738
a(g42
S'24250000'
p2739
tp2740
a(S'17'
p2741
S'46750000'
p2742
tp2743
aa(lp2744
(g42
S'210000000'
p2745
tp2746
aa(lp2747
(S'15'
p2748
S'64750000'
p2749
tp2750
a(S'21'
p2751
S'35000000'
p2752
tp2753
a(S'15'
p2754
S'64500000'
p2755
tp2756
aa(lp2757
(g136
S'84750000'
p2758
tp2759
a(g136
S'84500000'
p2760
tp2761
aa(lp2762
(S'20'
p2763
S'9750000'
p2764
tp2765
a(S'20'
p2766
S'9500000'
p2767
tp2768
aa(lp2769
(g2
S'221750000'
p2770
tp2771
a(g5
S'163500000'
p2772
tp2773
a(g2
S'221500000'
p2774
tp2775
a(g5
S'163250000'
p2776
tp2777
a(g5
S'163750000'
p2778
tp2779
aa(lp2780
(S'17'
p2781
S'4000000'
p2782
tp2783
aa(lp2784
(S'22'
p2785
S'43250000'
p2786
tp2787
a(S'20'
p2788
S'32500000'
p2789
tp2790
aa(lp2791
(S'11'
p2792
S'38500000'
p2793
tp2794
a(S'11'
p2795
S'38000000'
p2796
tp2797
a(S'11'
p2798
S'38250000'
p2799
tp2800
a(S'11'
p2801
S'37750000'
p2802
tp2803
a(S'11'
p2804
S'37250000'
p2805
tp2806
a(S'11'
p2807
S'37500000'
p2808
tp2809
a(S'11'
p2810
S'38750000'
p2811
tp2812
aa(lp2813
(S'19'
p2814
S'34250000'
p2815
tp2816
a(S'20'
p2817
S'56250000'
p2818
tp2819
a(S'19'
p2820
S'33750000'
p2821
tp2822
a(S'19'
p2823
S'34000000'
p2824
tp2825
a(S'20'
p2826
S'56500000'
p2827
tp2828
a(S'20'
p2829
S'56000000'
p2830
tp2831
aa(lp2832
(S'14'
p2833
S'66500000'
p2834
tp2835
aa(lp2836
(S'10'
p2837
S'87000000'
p2838
tp2839
aa(lp2840
(g42
S'93500000'
p2841
tp2842
aa(lp2843
(S'20'
p2844
S'57250000'
p2845
tp2846
a(S'22'
p2847
S'25750000'
p2848
tp2849
a(S'21'
p2850
S'42500000'
p2851
tp2852
aa(lp2853
(S'17'
p2854
S'44000000'
p2855
tp2856
a(g15
S'101500000'
p2857
tp2858
a(S'22'
p2859
S'40750000'
p2860
tp2861
a(g42
S'23250000'
p2862
tp2863
aa(lp2864
(g2
S'231250000'
p2865
tp2866
a(g42
S'236250000'
p2867
tp2868
a(g2
S'231000000'
p2869
tp2870
aa(lp2871
(S'16'
p2872
S'62250000'
p2873
tp2874
aa(lp2875
(g15
S'51500000'
p2876
tp2877
aa(lp2878
(g52
S'86000000'
p2879
tp2880
aa(lp2881
(g136
S'155000000'
p2882
tp2883
aa(lp2884
(S'22'
p2885
S'50000000'
p2886
tp2887
a(g5
S'5250000'
p2888
tp2889
a(S'19'
p2890
S'56500000'
p2891
tp2892
aa(lp2893
(S'20'
p2894
S'51500000'
p2895
tp2896
aa(lp2897
(S'16'
p2898
S'29000000'
p2899
tp2900
aa(lp2901
(g5
S'176500000'
p2902
tp2903
aa(lp2904
(g52
S'126750000'
p2905
tp2906
a(g52
S'126000000'
p2907
tp2908
a(g52
S'127000000'
p2909
tp2910
a(g42
S'22500000'
p2911
tp2912
a(g9
S'128750000'
p2913
tp2914
a(g42
S'22750000'
p2915
tp2916
a(g9
S'129250000'
p2917
tp2918
aa(lp2919
(g42
S'247000000'
p2920
tp2921
a(g42
S'247250000'
p2922
tp2923
aa(lp2924
(S'20'
p2925
S'37000000'
p2926
tp2927
a(S'20'
p2928
S'35750000'
p2929
tp2930
aa(lp2931
(g136
S'40000000'
p2932
tp2933
aa(lp2934
(S'20'
p2935
S'16250000'
p2936
tp2937
aa(lp2938
(g2
S'750000'
p2939
tp2940
a(g2
S'1250000'
p2941
tp2942
a(g2
S'500000'
p2943
tp2944
a(g2
S'1000000'
p2945
tp2946
a(S'10'
p2947
S'135250000'
p2948
tp2949
aa(lp2950
(g74
S'1750000'
p2951
tp2952
aa(lp2953
(S'14'
p2954
S'53250000'
p2955
tp2956
aa(lp2957
(S'21'
p2958
S'37500000'
p2959
tp2960
a(S'18'
p2961
S'9500000'
p2962
tp2963
a(S'18'
p2964
S'9750000'
p2965
tp2966
aa(lp2967
(S'10'
p2968
S'29250000'
p2969
tp2970
a(S'10'
p2971
S'29000000'
p2972
tp2973
aa(lp2974
(g74
S'4500000'
p2975
tp2976
aa(lp2977
(S'11'
p2978
S'83500000'
p2979
tp2980
aa(lp2981
(S'19'
p2982
S'57750000'
p2983
tp2984
a(S'19'
p2985
S'58750000'
p2986
tp2987
a(S'19'
p2988
S'58250000'
p2989
tp2990
a(S'19'
p2991
S'58000000'
p2992
tp2993
a(S'19'
p2994
S'58500000'
p2995
tp2996
aa(lp2997
(g52
S'172250000'
p2998
tp2999
a(g52
S'172000000'
p3000
tp3001
aa(lp3002
(S'17'
p3003
S'35750000'
p3004
tp3005
aa(lp3006
(g136
S'97250000'
p3007
tp3008
aa(lp3009
(S'13'
p3010
S'85000000'
p3011
tp3012
aa(lp3013
(g5
S'6750000'
p3014
tp3015
a(g5
S'7000000'
p3016
tp3017
a(g5
S'7500000'
p3018
tp3019
a(S'19'
p3020
S'57000000'
p3021
tp3022
a(g5
S'7250000'
p3023
tp3024
a(S'19'
p3025
S'57250000'
p3026
tp3027
a(S'19'
p3028
S'56750000'
p3029
tp3030
a(S'19'
p3031
S'57500000'
p3032
tp3033
aa(lp3034
(S'17'
p3035
S'16500000'
p3036
tp3037
aa(lp3038
(g15
S'47250000'
p3039
tp3040
aa(lp3041
(S'10'
p3042
S'31000000'
p3043
tp3044
a(S'10'
p3045
S'31500000'
p3046
tp3047
a(S'10'
p3048
S'31250000'
p3049
tp3050
a(S'15'
p3051
S'71000000'
p3052
tp3053
a(S'10'
p3054
S'32000000'
p3055
tp3056
a(S'15'
p3057
S'71250000'
p3058
tp3059
a(S'21'
p3060
S'36250000'
p3061
tp3062
a(S'15'
p3063
S'71500000'
p3064
tp3065
aa(lp3066
(g52
S'75750000'
p3067
tp3068
aa(lp3069
(g593
S'12250000'
p3070
tp3071
a(S'15'
p3072
S'28750000'
p3073
tp3074
a(g593
S'12500000'
p3075
tp3076
aa(lp3077
(S'15'
p3078
S'66750000'
p3079
tp3080
a(g136
S'36750000'
p3081
tp3082
a(g42
S'202000000'
p3083
tp3084
a(S'11'
p3085
S'66750000'
p3086
tp3087
aa(lp3088
(S'17'
p3089
S'60750000'
p3090
tp3091
aa(lp3092
(g593
S'9000000'
p3093
tp3094
a(g74
S'12250000'
p3095
tp3096
aa(lp3097
(S'18'
p3098
S'28500000'
p3099
tp3100
a(S'18'
p3101
S'28750000'
p3102
tp3103
aa(lp3104
(g5
S'152250000'
p3105
tp3106
a(g5
S'152500000'
p3107
tp3108
aa(lp3109
(g52
S'2500000'
p3110
tp3111
aa(lp3112
(S'22'
p3113
S'26750000'
p3114
tp3115
aa(lp3116
(g593
S'1750000'
p3117
tp3118
a(S'16'
p3119
S'1500000'
p3120
tp3121
a(S'13'
p3122
S'114000000'
p3123
tp3124
a(S'13'
p3125
S'113750000'
p3126
tp3127
a(g15
S'2250000'
p3128
tp3129
aa(lp3130
(g2
S'196000000'
p3131
tp3132
aa(lp3133
(g9
S'70750000'
p3134
tp3135
a(S'10'
p3136
S'51750000'
p3137
tp3138
aa(lp3139
(g5
S'175000000'
p3140
tp3141
a(g42
S'233500000'
p3142
tp3143
a(g42
S'234000000'
p3144
tp3145
a(g5
S'175250000'
p3146
tp3147
a(g593
S'187250000'
p3148
tp3149
a(g42
S'233750000'
p3150
tp3151
aa(lp3152
(S'10'
p3153
S'125000000'
p3154
tp3155
a(g42
S'5750000'
p3156
tp3157
a(S'10'
p3158
S'125250000'
p3159
tp3160
aa(lp3161
(g42
S'163500000'
p3162
tp3163
aa(lp3164
(S'22'
p3165
S'26500000'
p3166
tp3167
a(S'20'
p3168
S'55750000'
p3169
tp3170
a(S'20'
p3171
S'55250000'
p3172
tp3173
a(S'21'
p3174
S'42750000'
p3175
tp3176
a(S'20'
p3177
S'55500000'
p3178
tp3179
a(S'20'
p3180
S'55000000'
p3181
tp3182
aa(lp3183
(g52
S'48000000'
p3184
tp3185
aa(lp3186
(S'10'
p3187
S'130750000'
p3188
tp3189
a(S'10'
p3190
S'131000000'
p3191
tp3192
aa(lp3193
(g136
S'1000000'
p3194
tp3195
aa(lp3196
(g136
S'2500000'
p3197
tp3198
aa(lp3199
(g2
S'237500000'
p3200
tp3201
a(g593
S'188750000'
p3202
tp3203
aa(lp3204
(g9
S'137250000'
p3205
tp3206
a(S'17'
p3207
S'78750000'
p3208
tp3209
a(g42
S'9250000'
p3210
tp3211
a(S'16'
p3212
S'85000000'
p3213
tp3214
aa(lp3215
(S'14'
p3216
S'74000000'
p3217
tp3218
a(S'17'
p3219
S'40500000'
p3220
tp3221
aa(lp3222
(S'12'
p3223
S'52250000'
p3224
tp3225
a(S'15'
p3226
S'73750000'
p3227
tp3228
aa(lp3229
(S'18'
p3230
S'49500000'
p3231
tp3232
aa(lp3233
(S'19'
p3234
S'49250000'
p3235
tp3236
a(S'17'
p3237
S'46500000'
p3238
tp3239
a(S'22'
p3240
S'36500000'
p3241
tp3242
aa(lp3243
(S'12'
p3244
S'2500000'
p3245
tp3246
a(g9
S'130000000'
p3247
tp3248
a(S'15'
p3249
S'42250000'
p3250
tp3251
a(S'12'
p3252
S'2750000'
p3253
tp3254
aa(lp3255
(S'15'
p3256
S'42000000'
p3257
tp3258
a(S'11'
p3259
S'66500000'
p3260
tp3261
a(g42
S'22000000'
p3262
tp3263
aa(lp3264
(g136
S'162500000'
p3265
tp3266
a(g42
S'237000000'
p3267
tp3268
a(g42
S'237250000'
p3269
tp3270
a(g42
S'237500000'
p3271
tp3272
aa(lp3273
(g593
S'140750000'
p3274
tp3275
aa(lp3276
(S'18'
p3277
S'12250000'
p3278
tp3279
a(S'21'
p3280
S'33000000'
p3281
tp3282
aa(lp3283
(S'21'
p3284
S'18750000'
p3285
tp3286
a(S'20'
p3287
S'10250000'
p3288
tp3289
a(S'20'
p3290
S'11000000'
p3291
tp3292
a(S'20'
p3293
S'10500000'
p3294
tp3295
a(S'20'
p3296
S'10750000'
p3297
tp3298
a(S'20'
p3299
S'11250000'
p3300
tp3301
aa(lp3302
(S'12'
p3303
S'26750000'
p3304
tp3305
aa(lp3306
(S'20'
p3307
S'47750000'
p3308
tp3309
aa(lp3310
(S'13'
p3311
S'83000000'
p3312
tp3313
a(S'13'
p3314
S'83250000'
p3315
tp3316
aa(lp3317
(S'20'
p3318
S'23250000'
p3319
tp3320
a(S'19'
p3321
S'32750000'
p3322
tp3323
aa(lp3324
(g2
S'87750000'
p3325
tp3326
a(S'15'
p3327
S'30750000'
p3328
tp3329
aa(lp3330
(g52
S'125000000'
p3331
tp3332
aa(lp3333
(g42
S'159750000'
p3334
tp3335
aa(lp3336
(g74
S'111000000'
p3337
tp3338
aa(lp3339
(S'16'
p3340
S'68000000'
p3341
tp3342
a(S'17'
p3343
S'45000000'
p3344
tp3345
a(g9
S'132500000'
p3346
tp3347
a(S'16'
p3348
S'68250000'
p3349
tp3350
aa(lp3351
(g52
S'37750000'
p3352
tp3353
aa(lp3354
(S'18'
p3355
S'49750000'
p3356
tp3357
aa(lp3358
(g593
S'157250000'
p3359
tp3360
a(g593
S'157000000'
p3361
tp3362
aa(lp3363
(S'17'
p3364
S'77750000'
p3365
tp3366
a(S'16'
p3367
S'87500000'
p3368
tp3369
a(S'15'
p3370
S'65500000'
p3371
tp3372
a(S'17'
p3373
S'45750000'
p3374
tp3375
a(g9
S'133750000'
p3376
tp3377
a(S'12'
p3378
S'500000'
p3379
tp3380
a(S'10'
p3381
S'72000000'
p3382
tp3383
a(S'22'
p3384
S'42500000'
p3385
tp3386
aa(lp3387
(g74
S'5750000'
p3388
tp3389
aa(lp3390
(g2
S'217750000'
p3391
tp3392
a(g136
S'133750000'
p3393
tp3394
a(g2
S'218250000'
p3395
tp3396
a(g52
S'171750000'
p3397
tp3398
a(g52
S'171500000'
p3399
tp3400
a(g136
S'134000000'
p3401
tp3402
a(g2
S'218000000'
p3403
tp3404
a(g42
S'8500000'
p3405
tp3406
aa(lp3407
(g2
S'111500000'
p3408
tp3409
a(g2
S'111750000'
p3410
tp3411
aa(lp3412
(g52
S'156500000'
p3413
tp3414
aa(lp3415
(S'22'
p3416
S'47250000'
p3417
tp3418
aa(lp3419
(S'18'
p3420
S'4000000'
p3421
tp3422
aa(lp3423
(S'12'
p3424
S'89750000'
p3425
tp3426
a(S'12'
p3427
S'90000000'
p3428
tp3429
aa(lp3430
(g52
S'83250000'
p3431
tp3432
a(g52
S'84250000'
p3433
tp3434
a(g52
S'82750000'
p3435
tp3436
a(g52
S'83750000'
p3437
tp3438
a(g52
S'84750000'
p3439
tp3440
a(g52
S'84000000'
p3441
tp3442
a(g52
S'82500000'
p3443
tp3444
a(g52
S'83500000'
p3445
tp3446
a(S'21'
p3447
S'22750000'
p3448
tp3449
a(g52
S'84500000'
p3450
tp3451
a(g52
S'83000000'
p3452
tp3453
aa(lp3454
(S'10'
p3455
S'67000000'
p3456
tp3457
a(S'10'
p3458
S'67750000'
p3459
tp3460
aa(lp3461
(S'17'
p3462
S'17750000'
p3463
tp3464
a(S'22'
p3465
S'21000000'
p3466
tp3467
aa(lp3468
(S'21'
p3469
S'23000000'
p3470
tp3471
a(g5
S'27250000'
p3472
tp3473
aa(lp3474
(S'19'
p3475
S'4750000'
p3476
tp3477
aa(lp3478
(S'17'
p3479
S'41500000'
p3480
tp3481
aa(lp3482
(S'18'
p3483
S'4500000'
p3484
tp3485
a(S'18'
p3486
S'4250000'
p3487
tp3488
aa(lp3489
(S'13'
p3490
S'43750000'
p3491
tp3492
a(S'13'
p3493
S'43500000'
p3494
tp3495
a(S'15'
p3496
S'63500000'
p3497
tp3498
a(S'13'
p3499
S'43250000'
p3500
tp3501
aa(lp3502
(S'19'
p3503
S'56000000'
p3504
tp3505
a(S'19'
p3506
S'55500000'
p3507
tp3508
a(S'22'
p3509
S'50250000'
p3510
tp3511
a(S'19'
p3512
S'55750000'
p3513
tp3514
aa(lp3515
(S'13'
p3516
S'70500000'
p3517
tp3518
aa(lp3519
(S'20'
p3520
S'8750000'
p3521
tp3522
a(S'20'
p3523
S'9250000'
p3524
tp3525
a(S'20'
p3526
S'9000000'
p3527
tp3528
a(S'20'
p3529
S'8500000'
p3530
tp3531
a(S'21'
p3532
S'27250000'
p3533
tp3534
aa(lp3535
(g2
S'12750000'
p3536
tp3537
a(g2
S'13000000'
p3538
tp3539
a(g2
S'12250000'
p3540
tp3541
aa(lp3542
(S'21'
p3543
S'25500000'
p3544
tp3545
a(S'20'
p3546
S'12000000'
p3547
tp3548
aa(lp3549
(S'18'
p3550
S'47250000'
p3551
tp3552
aa(lp3553
(S'19'
p3554
S'43250000'
p3555
tp3556
a(S'19'
p3557
S'43500000'
p3558
tp3559
aa(lp3560
(S'15'
p3561
S'44000000'
p3562
tp3563
a(S'22'
p3564
S'41250000'
p3565
tp3566
aa(lp3567
(g136
S'136500000'
p3568
tp3569
a(g136
S'135750000'
p3570
tp3571
aa(lp3572
(g593
S'182750000'
p3573
tp3574
a(g2
S'215250000'
p3575
tp3576
a(g593
S'182500000'
p3577
tp3578
aa(lp3579
(g2
S'157000000'
p3580
tp3581
aa(lp3582
(g9
S'17750000'
p3583
tp3584
a(g9
S'18000000'
p3585
tp3586
aa(lp3587
(g52
S'160250000'
p3588
tp3589
aa(lp3590
(g593
S'162000000'
p3591
tp3592
a(g593
S'161500000'
p3593
tp3594
a(g593
S'162500000'
p3595
tp3596
a(g593
S'160500000'
p3597
tp3598
a(g593
S'161250000'
p3599
tp3600
a(g593
S'161750000'
p3601
tp3602
a(g593
S'160750000'
p3603
tp3604
a(g593
S'162250000'
p3605
tp3606
aa(lp3607
(S'15'
p3608
S'39250000'
p3609
tp3610
a(S'15'
p3611
S'39500000'
p3612
tp3613
a(S'15'
p3614
S'39750000'
p3615
tp3616
a(S'15'
p3617
S'39000000'
p3618
tp3619
aa(lp3620
(g136
S'117250000'
p3621
tp3622
aa(lp3623
(S'20'
p3624
S'33250000'
p3625
tp3626
a(S'16'
p3627
S'3750000'
p3628
tp3629
a(S'12'
p3630
S'1750000'
p3631
tp3632
a(S'10'
p3633
S'74750000'
p3634
tp3635
a(g593
S'2500000'
p3636
tp3637
a(S'20'
p3638
S'33000000'
p3639
tp3640
aa(lp3641
(S'11'
p3642
S'39250000'
p3643
tp3644
aa(lp3645
(S'16'
p3646
S'63250000'
p3647
tp3648
aa(lp3649
(g5
S'122750000'
p3650
tp3651
aa(lp3652
(g52
S'87000000'
p3653
tp3654
aa(lp3655
(S'22'
p3656
S'20750000'
p3657
tp3658
a(S'19'
p3659
S'50000000'
p3660
tp3661
a(S'19'
p3662
S'49500000'
p3663
tp3664
a(S'19'
p3665
S'49750000'
p3666
tp3667
a(S'16'
p3668
S'4500000'
p3669
tp3670
a(S'17'
p3671
S'36500000'
p3672
tp3673
a(S'17'
p3674
S'36750000'
p3675
tp3676
aa(lp3677
(S'18'
p3678
S'61750000'
p3679
tp3680
aa(lp3681
(S'16'
p3682
S'30000000'
p3683
tp3684
a(S'19'
p3685
S'10750000'
p3686
tp3687
a(S'16'
p3688
S'29750000'
p3689
tp3690
a(S'19'
p3691
S'10500000'
p3692
tp3693
aa(lp3694
(g5
S'177500000'
p3695
tp3696
a(g42
S'2500000'
p3697
tp3698
a(g136
S'168000000'
p3699
tp3700
a(g5
S'178000000'
p3701
tp3702
a(g42
S'2750000'
p3703
tp3704
a(g5
S'177750000'
p3705
tp3706
a(g15
S'158750000'
p3707
tp3708
aa(lp3709
(g52
S'127750000'
p3710
tp3711
a(g52
S'128000000'
p3712
tp3713
a(g9
S'129500000'
p3714
tp3715
aa(lp3716
(S'17'
p3717
S'45250000'
p3718
tp3719
a(S'16'
p3720
S'29250000'
p3721
tp3722
aa(lp3723
(g2
S'15750000'
p3724
tp3725
aa(lp3726
(g15
S'90000000'
p3727
tp3728
aa(lp3729
(g5
S'172250000'
p3730
tp3731
a(g2
S'238000000'
p3732
tp3733
aa(lp3734
(S'12'
p3735
S'82000000'
p3736
tp3737
aa(lp3738
(g2
S'80000000'
p3739
tp3740
a(g2
S'80250000'
p3741
tp3742
aa(lp3743
(S'14'
p3744
S'44500000'
p3745
tp3746
a(S'10'
p3747
S'47250000'
p3748
tp3749
aa(lp3750
(g5
S'67000000'
p3751
tp3752
a(g5
S'66750000'
p3753
tp3754
aa(lp3755
(S'12'
p3756
S'51750000'
p3757
tp3758
a(S'15'
p3759
S'73000000'
p3760
tp3761
aa(lp3762
(g42
S'15500000'
p3763
tp3764
a(g136
S'169750000'
p3765
tp3766
aa(lp3767
(S'15'
p3768
S'76250000'
p3769
tp3770
aa(lp3771
(g136
S'96250000'
p3772
tp3773
a(g136
S'96000000'
p3774
tp3775
a(g136
S'96750000'
p3776
tp3777
a(g136
S'95750000'
p3778
tp3779
a(g136
S'96500000'
p3780
tp3781
aa(lp3782
(g593
S'186500000'
p3783
tp3784
a(g136
S'169250000'
p3785
tp3786
a(g5
S'167250000'
p3787
tp3788
a(g593
S'186750000'
p3789
tp3790
aa(lp3791
(g2
S'25250000'
p3792
tp3793
a(g42
S'9000000'
p3794
tp3795
a(S'15'
p3796
S'68000000'
p3797
tp3798
a(S'12'
p3799
S'121500000'
p3800
tp3801
a(g2
S'25500000'
p3802
tp3803
aa(lp3804
(S'16'
p3805
S'84250000'
p3806
tp3807
a(g593
S'2000000'
p3808
tp3809
a(g593
S'2250000'
p3810
tp3811
a(S'13'
p3812
S'114250000'
p3813
tp3814
aa(lp3815
(g15
S'129500000'
p3816
tp3817
a(g52
S'195000000'
p3818
tp3819
aa(lp3820
(S'12'
p3821
S'120500000'
p3822
tp3823
aa(lp3824
(g52
S'36000000'
p3825
tp3826
aa(lp3827
(g42
S'6750000'
p3828
tp3829
aa(lp3830
(S'22'
p3831
S'30250000'
p3832
tp3833
a(S'12'
p3834
S'1500000'
p3835
tp3836
a(S'15'
p3837
S'40000000'
p3838
tp3839
a(S'17'
p3840
S'78500000'
p3841
tp3842
a(S'16'
p3843
S'4000000'
p3844
tp3845
aa(lp3846
(g2
S'233500000'
p3847
tp3848
a(g5
S'176250000'
p3849
tp3850
aa(lp3851
(g9
S'133250000'
p3852
tp3853
a(S'14'
p3854
S'102000000'
p3855
tp3856
a(S'14'
p3857
S'101750000'
p3858
tp3859
a(S'15'
p3860
S'70500000'
p3861
tp3862
a(S'17'
p3863
S'75750000'
p3864
tp3865
a(S'17'
p3866
S'75500000'
p3867
tp3868
a(S'14'
p3869
S'101500000'
p3870
tp3871
aa(lp3872
(S'16'
p3873
S'67000000'
p3874
tp3875
a(S'17'
p3876
S'49000000'
p3877
tp3878
a(S'16'
p3879
S'67500000'
p3880
tp3881
aa(lp3882
(S'10'
p3883
S'59500000'
p3884
tp3885
aa(lp3886
(S'19'
p3887
S'31250000'
p3888
tp3889
a(S'20'
p3890
S'23750000'
p3891
tp3892
a(S'20'
p3893
S'24000000'
p3894
tp3895
aa(lp3896
(S'13'
p3897
S'44500000'
p3898
tp3899
aa(lp3900
(g15
S'111000000'
p3901
tp3902
aa(lp3903
(S'19'
p3904
S'10000000'
p3905
tp3906
aa(lp3907
(g52
S'3500000'
p3908
tp3909
a(g52
S'3750000'
p3910
tp3911
a(g52
S'4000000'
p3912
tp3913
a(g52
S'3250000'
p3914
tp3915
aa(lp3916
(g136
S'166500000'
p3917
tp3918
a(g2
S'233750000'
p3919
tp3920
a(g5
S'169750000'
p3921
tp3922
a(g5
S'170000000'
p3923
tp3924
a(g5
S'169500000'
p3925
tp3926
a(g593
S'185750000'
p3927
tp3928
aa(lp3929
(g2
S'211000000'
p3930
tp3931
a(g2
S'211250000'
p3932
tp3933
aa(lp3934
(S'18'
p3935
S'2250000'
p3936
tp3937
aa(lp3938
(S'18'
p3939
S'61250000'
p3940
tp3941
aa(lp3942
(S'12'
p3943
S'14750000'
p3944
tp3945
aa(lp3946
(g42
S'176500000'
p3947
tp3948
aa(lp3949
(g136
S'91250000'
p3950
tp3951
aa(lp3952
(S'11'
p3953
S'113250000'
p3954
tp3955
aa(lp3956
(g2
S'220250000'
p3957
tp3958
a(g42
S'16750000'
p3959
tp3960
a(g2
S'220000000'
p3961
tp3962
aa(lp3963
(g9
S'34500000'
p3964
tp3965
a(g9
S'34250000'
p3966
tp3967
aa(lp3968
(S'14'
p3969
S'48750000'
p3970
tp3971
aa(lp3972
(g2
S'57750000'
p3973
tp3974
a(g2
S'56250000'
p3975
tp3976
a(g2
S'56500000'
p3977
tp3978
aa(lp3979
(S'17'
p3980
S'38500000'
p3981
tp3982
a(S'22'
p3983
S'36750000'
p3984
tp3985
a(S'16'
p3986
S'86500000'
p3987
tp3988
a(g42
S'27000000'
p3989
tp3990
a(S'10'
p3991
S'75500000'
p3992
tp3993
a(S'11'
p3994
S'65000000'
p3995
tp3996
aa(lp3997
(g74
S'59000000'
p3998
tp3999
a(g74
S'58750000'
p4000
tp4001
aa(lp4002
(g136
g588
tp4003
aa(lp4004
(S'13'
p4005
S'82750000'
p4006
tp4007
a(g15
S'143250000'
p4008
tp4009
aa(lp4010
(g593
S'46250000'
p4011
tp4012
aa(lp4013
(S'11'
p4014
S'72000000'
p4015
tp4016
a(g136
S'37250000'
p4017
tp4018
aa(lp4019
(S'19'
p4020
S'31000000'
p4021
tp4022
a(S'20'
p4023
S'19000000'
p4024
tp4025
aa(lp4026
(g42
S'74000000'
p4027
tp4028
aa(lp4029
(g42
S'230500000'
p4030
tp4031
aa(lp4032
(g2
S'229750000'
p4033
tp4034
a(g5
S'166250000'
p4035
tp4036
a(g5
S'166750000'
p4037
tp4038
aa(lp4039
(S'14'
p4040
S'26250000'
p4041
tp4042
aa(lp4043
(S'12'
p4044
S'44000000'
p4045
tp4046
aa(lp4047
(S'19'
p4048
S'18250000'
p4049
tp4050
a(S'17'
p4051
S'1750000'
p4052
tp4053
a(S'22'
p4054
S'19750000'
p4055
tp4056
aa(lp4057
(g42
S'37250000'
p4058
tp4059
aa(lp4060
(S'15'
p4061
S'27000000'
p4062
tp4063
a(S'15'
p4064
S'26500000'
p4065
tp4066
a(S'15'
p4067
S'26750000'
p4068
tp4069
aa(lp4070
(g136
S'161500000'
p4071
tp4072
aa(lp4073
(S'20'
p4074
S'21000000'
p4075
tp4076
a(S'19'
p4077
S'33250000'
p4078
tp4079
a(S'19'
p4080
S'33000000'
p4081
tp4082
aa(lp4083
(S'19'
p4084
S'30250000'
p4085
tp4086
a(S'19'
p4087
S'30000000'
p4088
tp4089
a(S'20'
p4090
S'60250000'
p4091
tp4092
a(S'19'
p4093
S'30500000'
p4094
tp4095
aa(lp4096
(g5
S'25000000'
p4097
tp4098
aa(lp4099
(g42
S'181500000'
p4100
tp4101
aa(lp4102
(S'15'
p4103
S'78250000'
p4104
tp4105
aa(lp4106
(S'20'
p4107
S'22250000'
p4108
tp4109
a(S'21'
p4110
S'39250000'
p4111
tp4112
a(S'20'
p4113
S'22500000'
p4114
tp4115
a(S'20'
p4116
S'21500000'
p4117
tp4118
a(S'22'
p4119
S'26000000'
p4120
tp4121
a(S'20'
p4122
S'22750000'
p4123
tp4124
a(S'22'
p4125
S'25500000'
p4126
tp4127
a(S'21'
p4128
S'39750000'
p4129
tp4130
a(S'22'
p4131
S'25250000'
p4132
tp4133
aa(lp4134
(S'21'
p4135
S'44250000'
p4136
tp4137
a(S'17'
p4138
S'17000000'
p4139
tp4140
aa(lp4141
(S'22'
p4142
S'45750000'
p4143
tp4144
aa(lp4145
(g593
S'45250000'
p4146
tp4147
a(g593
S'45750000'
p4148
tp4149
a(g593
S'44750000'
p4150
tp4151
a(g593
S'45000000'
p4152
tp4153
aa(lp4154
(S'16'
p4155
S'69000000'
p4156
tp4157
a(S'22'
p4158
S'36250000'
p4159
tp4160
a(S'22'
p4161
S'36000000'
p4162
tp4163
aa(lp4164
(S'14'
p4165
S'52000000'
p4166
tp4167
a(S'15'
p4168
S'63250000'
p4169
tp4170
a(S'14'
p4171
S'51750000'
p4172
tp4173
a(S'14'
p4174
S'52250000'
p4175
tp4176
aa(lp4177
(S'10'
p4178
S'129500000'
p4179
tp4180
a(g2
S'2000000'
p4181
tp4182
a(S'10'
p4183
S'129250000'
p4184
tp4185
a(S'12'
p4186
S'125750000'
p4187
tp4188
a(g2
S'2250000'
p4189
tp4190
a(g2
S'2750000'
p4191
tp4192
a(g2
S'2500000'
p4193
tp4194
a(g2
S'3000000'
p4195
tp4196
a(S'11'
p4197
S'134500000'
p4198
tp4199
aa(lp4200
(g593
S'123750000'
p4201
tp4202
a(g74
S'121500000'
p4203
tp4204
a(g136
S'136250000'
p4205
tp4206
a(g136
S'136000000'
p4207
tp4208
aa(lp4209
(g136
S'103750000'
p4210
tp4211
a(g9
S'68000000'
p4212
tp4213
aa(lp4214
(S'13'
p4215
S'58500000'
p4216
tp4217
aa(lp4218
(g2
S'232750000'
p4219
tp4220
a(g2
S'233000000'
p4221
tp4222
a(g5
S'171250000'
p4223
tp4224
aa(lp4225
(g2
S'90000000'
p4226
tp4227
a(S'16'
p4228
S'32250000'
p4229
tp4230
aa(lp4231
(S'17'
p4232
S'51000000'
p4233
tp4234
a(S'18'
p4235
S'70500000'
p4236
tp4237
aa(lp4238
(S'22'
p4239
S'46250000'
p4240
tp4241
a(g9
S'130750000'
p4242
tp4243
a(S'11'
p4244
S'2750000'
p4245
tp4246
aa(lp4247
(S'13'
p4248
S'70250000'
p4249
tp4250
aa(lp4251
(S'11'
p4252
S'43500000'
p4253
tp4254
aa(lp4255
(g2
S'41000000'
p4256
tp4257
aa(lp4258
(S'16'
p4259
S'28500000'
p4260
tp4261
a(S'19'
p4262
S'10250000'
p4263
tp4264
aa(lp4265
(g5
S'106000000'
p4266
tp4267
aa(lp4268
(g2
S'114250000'
p4269
tp4270
aa(lp4271
(g5
S'14750000'
p4272
tp4273
aa(lp4274
(S'12'
p4275
S'17500000'
p4276
tp4277
aa(lp4278
(g136
S'46000000'
p4279
tp4280
aa(lp4281
(g5
S'165500000'
p4282
tp4283
aa(lp4284
(g42
S'240000000'
p4285
tp4286
a(g2
S'228500000'
p4287
tp4288
aa(lp4289
(S'20'
p4290
S'6500000'
p4291
tp4292
a(S'20'
p4293
S'6250000'
p4294
tp4295
aa(lp4296
(g9
S'10250000'
p4297
tp4298
a(g9
S'11000000'
p4299
tp4300
a(g9
S'10500000'
p4301
tp4302
a(g9
S'11500000'
p4303
tp4304
a(g9
S'10750000'
p4305
tp4306
a(g9
S'11750000'
p4307
tp4308
a(g9
S'11250000'
p4309
tp4310
a(g9
S'12000000'
p4311
tp4312
aa(lp4313
(g42
S'105500000'
p4314
tp4315
a(g42
S'105250000'
p4316
tp4317
a(g42
S'106500000'
p4318
tp4319
a(g42
S'106750000'
p4320
tp4321
aa(lp4322
(g2
S'27750000'
p4323
tp4324
a(g2
S'28500000'
p4325
tp4326
aa(lp4327
(g52
S'170500000'
p4328
tp4329
aa(lp4330
(g42
S'203250000'
p4331
tp4332
a(S'17'
p4333
S'74500000'
p4334
tp4335
aa(lp4336
(g5
S'87000000'
p4337
tp4338
aa(lp4339
(g52
S'161250000'
p4340
tp4341
a(g52
S'162750000'
p4342
tp4343
aa(lp4344
(S'22'
p4345
S'50500000'
p4346
tp4347
a(S'17'
p4348
S'7750000'
p4349
tp4350
a(S'17'
p4351
S'8000000'
p4352
tp4353
aa(lp4354
(S'20'
p4355
S'32250000'
p4356
tp4357
a(S'22'
p4358
S'46500000'
p4359
tp4360
a(S'20'
p4361
S'32000000'
p4362
tp4363
aa(lp4364
(g15
S'109500000'
p4365
tp4366
aa(lp4367
(S'14'
p4368
S'73750000'
p4369
tp4370
aa(lp4371
(g42
S'242750000'
p4372
tp4373
a(g136
S'162750000'
p4374
tp4375
a(g136
S'165000000'
p4376
tp4377
a(g42
S'242250000'
p4378
tp4379
a(g42
S'243000000'
p4380
tp4381
a(g42
S'242500000'
p4382
tp4383
a(g136
S'162000000'
p4384
tp4385
aa(lp4386
(g136
S'153000000'
p4387
tp4388
aa(lp4389
(S'22'
p4390
S'32250000'
p4391
tp4392
a(S'20'
p4393
S'19500000'
p4394
tp4395
aa(lp4396
(g52
S'192750000'
p4397
tp4398
a(g2
S'226250000'
p4399
tp4400
aa(lp4401
(S'17'
p4402
S'44250000'
p4403
tp4404
a(S'16'
p4405
S'4250000'
p4406
tp4407
a(g15
S'100000000'
p4408
tp4409
a(g15
S'99500000'
p4410
tp4411
aa(lp4412
(g593
S'32500000'
p4413
tp4414
a(S'10'
p4415
S'46250000'
p4416
tp4417
aa(lp4418
(g15
S'91000000'
p4419
tp4420
aa(lp4421
(S'14'
p4422
S'51250000'
p4423
tp4424
a(S'14'
p4425
S'51000000'
p4426
tp4427
aa(lp4428
(S'10'
p4429
S'59250000'
p4430
tp4431
a(S'10'
p4432
S'57750000'
p4433
tp4434
a(S'10'
p4435
S'58750000'
p4436
tp4437
a(S'10'
p4438
S'58250000'
p4439
tp4440
a(S'10'
p4441
S'57500000'
p4442
tp4443
aa(lp4444
(S'15'
p4445
S'66000000'
p4446
tp4447
aa(lp4448
(g2
S'79000000'
p4449
tp4450
aa(lp4451
(g136
S'95250000'
p4452
tp4453
aa(lp4454
(S'20'
p4455
S'18500000'
p4456
tp4457
aa(lp4458
(g5
S'172750000'
p4459
tp4460
a(g2
S'235750000'
p4461
tp4462
a(g2
S'235250000'
p4463
tp4464
a(g5
S'169000000'
p4465
tp4466
a(g2
S'235500000'
p4467
tp4468
a(g593
S'189750000'
p4469
tp4470
aa(lp4471
(g42
S'247750000'
p4472
tp4473
aa(lp4474
(g74
S'7000000'
p4475
tp4476
a(g5
S'26000000'
p4477
tp4478
aa(lp4479
(S'15'
p4480
S'41500000'
p4481
tp4482
a(S'21'
p4483
S'47750000'
p4484
tp4485
a(S'17'
p4486
S'500000'
p4487
tp4488
a(S'22'
p4489
S'29750000'
p4490
tp4491
aa(lp4492
(S'17'
p4493
S'73000000'
p4494
tp4495
a(g74
S'144250000'
p4496
tp4497
aa(lp4498
(g42
S'54000000'
p4499
tp4500
aa(lp4501
(S'20'
p4502
S'23500000'
p4503
tp4504
a(S'21'
p4505
S'43000000'
p4506
tp4507
aa(lp4508
(S'11'
p4509
S'43750000'
p4510
tp4511
aa(lp4512
(g2
S'51500000'
p4513
tp4514
aa(lp4515
(g42
S'145250000'
p4516
tp4517
aa(lp4518
(g136
S'165500000'
p4519
tp4520
a(g74
S'136750000'
p4521
tp4522
aa(lp4523
(g15
S'88750000'
p4524
tp4525
a(g9
S'43250000'
p4526
tp4527
aa(lp4528
(g5
S'173000000'
p4529
tp4530
aa(lp4531
(g52
S'123250000'
p4532
tp4533
aa(lp4534
(S'20'
p4535
S'3250000'
p4536
tp4537
a(S'22'
p4538
S'30000000'
p4539
tp4540
a(S'20'
p4541
S'3500000'
p4542
tp4543
aa(lp4544
(g593
S'136500000'
p4545
tp4546
aa(lp4547
(g9
S'35500000'
p4548
tp4549
aa(lp4550
(g5
S'25750000'
p4551
tp4552
a(g5
S'24250000'
p4553
tp4554
a(S'21'
p4555
S'31750000'
p4556
tp4557
a(g5
S'28750000'
p4558
tp4559
a(S'21'
p4560
S'32000000'
p4561
tp4562
a(S'21'
p4563
S'31500000'
p4564
tp4565
aa(lp4566
(g2
S'153000000'
p4567
tp4568
aa(lp4569
(g42
S'56750000'
p4570
tp4571
a(g42
S'56250000'
p4572
tp4573
aa(lp4574
(S'15'
p4575
S'78500000'
p4576
tp4577
a(S'15'
p4578
S'78000000'
p4579
tp4580
aa(lp4581
(g52
S'26750000'
p4582
tp4583
aa(lp4584
(S'17'
p4585
S'46250000'
p4586
tp4587
aa(lp4588
(g74
S'123750000'
p4589
tp4590
aa(lp4591
(g136
S'107750000'
p4592
tp4593
aa(lp4594
(S'11'
p4595
S'24750000'
p4596
tp4597
aa(lp4598
(g5
S'750000'
p4599
tp4600
a(g5
S'500000'
p4601
tp4602
aa(lp4603
(S'19'
p4604
S'19250000'
p4605
tp4606
a(S'16'
p4607
S'30250000'
p4608
tp4609
a(S'19'
p4610
S'19500000'
p4611
tp4612
a(S'19'
p4613
S'19000000'
p4614
tp4615
a(S'16'
p4616
S'30500000'
p4617
tp4618
aa(lp4619
(g136
S'160500000'
p4620
tp4621
a(g42
S'236500000'
p4622
tp4623
aa(lp4624
(S'13'
p4625
S'58250000'
p4626
tp4627
aa(lp4628
(S'20'
p4629
S'20000000'
p4630
tp4631
aa(lp4632
(S'22'
p4633
S'33000000'
p4634
tp4635
a(S'20'
p4636
S'19750000'
p4637
tp4638
aa(lp4639
(g74
S'250000'
p4640
tp4641
aa(lp4642
(S'13'
p4643
S'113000000'
p4644
tp4645
aa(lp4646
(g9
S'68500000'
p4647
tp4648
a(g74
S'114750000'
p4649
tp4650
aa(lp4651
(S'16'
p4652
S'71250000'
p4653
tp4654
a(S'16'
p4655
S'71500000'
p4656
tp4657
aa(lp4658
(S'14'
p4659
S'26750000'
p4660
tp4661
a(S'14'
p4662
S'26500000'
p4663
tp4664
a(S'14'
p4665
S'27000000'
p4666
tp4667
a(S'14'
p4668
S'27250000'
p4669
tp4670
a(S'21'
p4671
S'26000000'
p4672
tp4673
aa(lp4674
(S'21'
p4675
S'40000000'
p4676
tp4677
aa(lp4678
(g74
S'137000000'
p4679
tp4680
a(g136
S'164500000'
p4681
tp4682
aa(lp4683
(S'22'
p4684
S'44750000'
p4685
tp4686
a(S'16'
p4687
S'84500000'
p4688
tp4689
a(S'17'
p4690
S'750000'
p4691
tp4692
aa(lp4693
(g593
S'140250000'
p4694
tp4695
a(g42
S'10000000'
p4696
tp4697
aa(lp4698
(g15
S'147250000'
p4699
tp4700
aa(lp4701
(g52
S'103750000'
p4702
tp4703
a(g9
S'43750000'
p4704
tp4705
a(g52
S'102500000'
p4706
tp4707
aa(lp4708
(S'10'
p4709
S'500000'
p4710
tp4711
aa(lp4712
(S'15'
p4713
S'38750000'
p4714
tp4715
aa(lp4716
(g42
S'107500000'
p4717
tp4718
aa(lp4719
(g593
S'181000000'
p4720
tp4721
a(g2
S'212250000'
p4722
tp4723
aa(lp4724
(g9
S'23000000'
p4725
tp4726
a(g9
S'22750000'
p4727
tp4728
a(g9
S'23250000'
p4729
tp4730
aa(lp4731
(S'12'
p4732
S'122000000'
p4733
tp4734
a(g5
S'139000000'
p4735
tp4736
aa(lp4737
(S'17'
p4738
S'50000000'
p4739
tp4740
aa(lp4741
(S'22'
p4742
S'21250000'
p4743
tp4744
a(S'19'
p4745
S'48750000'
p4746
tp4747
a(S'19'
p4748
S'49000000'
p4749
tp4750
a(S'17'
p4751
S'37750000'
p4752
tp4753
aa(lp4754
(g2
S'155250000'
p4755
tp4756
a(S'17'
p4757
S'44500000'
p4758
tp4759
aa(lp4760
(g42
S'231500000'
p4761
tp4762
aa(lp4763
(g5
S'151500000'
p4764
tp4765
aa(lp4766
(g2
S'69250000'
p4767
tp4768
a(g2
S'69000000'
p4769
tp4770
aa(lp4771
(S'10'
p4772
S'102750000'
p4773
tp4774
a(S'12'
p4775
S'121250000'
p4776
tp4777
a(g52
S'197250000'
p4778
tp4779
a(S'12'
p4780
S'121000000'
p4781
tp4782
a(g2
S'27000000'
p4783
tp4784
a(S'10'
p4785
S'103000000'
p4786
tp4787
a(g42
S'7750000'
p4788
tp4789
a(g2
S'26500000'
p4790
tp4791
aa(lp4792
(S'17'
p4793
S'11500000'
p4794
tp4795
a(S'17'
p4796
S'10750000'
p4797
tp4798
a(g5
S'6250000'
p4799
tp4800
a(S'17'
p4801
S'11000000'
p4802
tp4803
a(S'17'
p4804
S'11250000'
p4805
tp4806
aa(lp4807
(g136
S'2000000'
p4808
tp4809
a(g136
S'2250000'
p4810
tp4811
a(g136
S'1750000'
p4812
tp4813
aa(lp4814
(g136
S'40500000'
p4815
tp4816
a(g136
S'40250000'
p4817
tp4818
aa(lp4819
(S'11'
p4820
S'3000000'
p4821
tp4822
aa(lp4823
(g2
S'81500000'
p4824
tp4825
aa(lp4826
(g5
S'138500000'
p4827
tp4828
aa(lp4829
(g15
S'29500000'
p4830
tp4831
aa(lp4832
(g42
S'1000000'
p4833
tp4834
a(S'12'
p4835
S'123250000'
p4836
tp4837
a(g42
S'750000'
p4838
tp4839
a(g9
S'133500000'
p4840
tp4841
a(g74
S'145000000'
p4842
tp4843
a(S'13'
p4844
S'114750000'
p4845
tp4846
aa(lp4847
(S'15'
p4848
S'75750000'
p4849
tp4850
a(S'17'
p4851
S'46000000'
p4852
tp4853
a(g42
S'23750000'
p4854
tp4855
a(S'19'
p4856
S'46000000'
p4857
tp4858
aa(lp4859
(g136
S'153750000'
p4860
tp4861
aa(lp4862
(g5
S'161250000'
p4863
tp4864
a(g5
S'162000000'
p4865
tp4866
a(g5
S'162500000'
p4867
tp4868
aa(lp4869
(S'12'
p4870
S'57000000'
p4871
tp4872
a(S'12'
p4873
S'56750000'
p4874
tp4875
a(S'12'
p4876
S'56500000'
p4877
tp4878
a(S'17'
p4879
S'47750000'
p4880
tp4881
aa(lp4882
(g2
S'219000000'
p4883
tp4884
a(g42
S'1500000'
p4885
tp4886
aa(lp4887
(g52
S'162250000'
p4888
tp4889
aa(lp4890
(g15
S'21750000'
p4891
tp4892
aa(lp4893
(S'11'
p4894
S'73250000'
p4895
tp4896
a(S'10'
p4897
S'32500000'
p4898
tp4899
a(S'15'
p4900
S'72750000'
p4901
tp4902
aa(lp4903
(g9
S'138500000'
p4904
tp4905
a(S'11'
p4906
S'70750000'
p4907
tp4908
aa(lp4909
(g52
S'153000000'
p4910
tp4911
aa(lp4912
(S'10'
p4913
S'121750000'
p4914
tp4915
a(S'10'
p4916
S'122500000'
p4917
tp4918
a(S'10'
p4919
S'122250000'
p4920
tp4921
a(S'10'
p4922
S'122000000'
p4923
tp4924
aa(lp4925
(S'17'
p4926
S'62500000'
p4927
tp4928
aa(lp4929
(S'14'
p4930
S'97000000'
p4931
tp4932
aa(lp4933
(g52
S'193750000'
p4934
tp4935
a(g52
S'193500000'
p4936
tp4937
aa(lp4938
(S'10'
p4939
S'70500000'
p4940
tp4941
a(S'10'
p4942
S'70000000'
p4943
tp4944
aa(lp4945
(g74
S'120750000'
p4946
tp4947
aa(lp4948
(g136
S'132750000'
p4949
tp4950
aa(lp4951
(g593
S'127000000'
p4952
tp4953
aa(lp4954
(S'16'
p4955
S'8750000'
p4956
tp4957
aa(lp4958
(g5
S'170250000'
p4959
tp4960
a(g5
S'170500000'
p4961
tp4962
aa(lp4963
(g2
S'69500000'
p4964
tp4965
aa(lp4966
(g74
S'1500000'
p4967
tp4968
a(g74
S'2000000'
p4969
tp4970
a(g5
S'1750000'
p4971
tp4972
aa(lp4973
(S'13'
p4974
S'69250000'
p4975
tp4976
aa(lp4977
(g2
S'222000000'
p4978
tp4979
aa(lp4980
(S'12'
p4981
S'117750000'
p4982
tp4983
a(S'12'
p4984
S'118000000'
p4985
tp4986
aa(lp4987
(S'17'
p4988
S'4750000'
p4989
tp4990
a(S'17'
p4991
S'4500000'
p4992
tp4993
a(S'22'
p4994
S'19000000'
p4995
tp4996
aa(lp4997
(S'15'
p4998
S'102250000'
p4999
tp5000
aa(lp5001
(g136
S'94250000'
p5002
tp5003
aa(lp5004
(g593
S'44500000'
p5005
tp5006
aa(lp5007
(S'12'
p5008
S'58500000'
p5009
tp5010
a(S'12'
p5011
S'59000000'
p5012
tp5013
a(S'12'
p5014
S'58750000'
p5015
tp5016
a(S'12'
p5017
S'59250000'
p5018
tp5019
aa(lp5020
(g74
S'6000000'
p5021
tp5022
aa(lp5023
(S'20'
p5024
S'35500000'
p5025
tp5026
aa(lp5027
(g2
S'231500000'
p5028
tp5029
aa(lp5030
(g9
S'35250000'
p5031
tp5032
aa(lp5033
(S'21'
p5034
S'34250000'
p5035
tp5036
a(S'22'
p5037
S'23250000'
p5038
tp5039
a(S'22'
p5040
S'23000000'
p5041
tp5042
a(S'22'
p5043
S'22750000'
p5044
tp5045
aa(lp5046
(g74
S'71750000'
p5047
tp5048
a(g74
S'72250000'
p5049
tp5050
a(g74
S'72000000'
p5051
tp5052
aa(lp5053
(S'13'
p5054
S'82500000'
p5055
tp5056
aa(lp5057
(S'20'
p5058
S'36750000'
p5059
tp5060
a(S'20'
p5061
S'36500000'
p5062
tp5063
aa(lp5064
(S'11'
p5065
S'28750000'
p5066
tp5067
a(S'11'
p5068
S'28500000'
p5069
tp5070
a(S'11'
p5071
S'28250000'
p5072
tp5073
aa(lp5074
(g2
S'240750000'
p5075
tp5076
a(g5
S'173500000'
p5077
tp5078
a(g15
S'154750000'
p5079
tp5080
a(g2
S'240500000'
p5081
tp5082
aa(lp5083
(S'14'
p5084
S'101250000'
p5085
tp5086
a(S'14'
p5087
S'100750000'
p5088
tp5089
aa(lp5090
(S'18'
p5091
S'49250000'
p5092
tp5093
aa(lp5094
(S'12'
p5095
S'125500000'
p5096
tp5097
a(g74
S'140750000'
p5098
tp5099
aa(lp5100
(g136
S'36500000'
p5101
tp5102
a(S'10'
p5103
S'74000000'
p5104
tp5105
a(S'17'
p5106
S'42500000'
p5107
tp5108
aa(lp5109
(g593
S'82750000'
p5110
tp5111
aa(lp5112
(S'11'
p5113
S'67500000'
p5114
tp5115
a(g15
S'100500000'
p5116
tp5117
aa(lp5118
(S'16'
p5119
S'68500000'
p5120
tp5121
aa(lp5122
(g15
S'89750000'
p5123
tp5124
aa(lp5125
(S'12'
p5126
S'16750000'
p5127
tp5128
aa(lp5129
(g52
S'124250000'
p5130
tp5131
a(g52
S'124000000'
p5132
tp5133
aa(lp5134
(S'17'
p5135
S'60500000'
p5136
tp5137
aa(lp5138
(g593
S'107500000'
p5139
tp5140
a(g593
S'107250000'
p5141
tp5142
aa(lp5143
(S'14'
p5144
S'46750000'
p5145
tp5146
aa(lp5147
(g5
S'54750000'
p5148
tp5149
a(g15
S'79000000'
p5150
tp5151
aa(lp5152
(S'22'
p5153
S'32750000'
p5154
tp5155
aa(lp5156
(g42
S'232000000'
p5157
tp5158
a(g5
S'169250000'
p5159
tp5160
a(g42
S'231750000'
p5161
tp5162
a(g42
S'232500000'
p5163
tp5164
aa(lp5165
(g2
S'227750000'
p5166
tp5167
aa(lp5168
(S'21'
p5169
S'38500000'
p5170
tp5171
a(S'20'
p5172
S'47500000'
p5173
tp5174
aa(lp5175
(g52
S'18500000'
p5176
tp5177
a(g52
S'18750000'
p5178
tp5179
aa(lp5180
(S'10'
p5181
S'250000'
p5182
tp5183
aa(lp5184
(g74
S'75500000'
p5185
tp5186
a(g74
S'75750000'
p5187
tp5188
aa(lp5189
(S'15'
p5190
S'53000000'
p5191
tp5192
aa(lp5193
(S'22'
p5194
S'28500000'
p5195
tp5196
a(S'22'
p5197
S'28750000'
p5198
tp5199
a(S'22'
p5200
S'28250000'
p5201
tp5202
aa(lp5203
(S'11'
p5204
S'96500000'
p5205
tp5206
aa(lp5207
(g15
S'38750000'
p5208
tp5209
aa(lp5210
(S'14'
p5211
S'104500000'
p5212
tp5213
a(S'14'
p5214
S'104750000'
p5215
tp5216
a(S'13'
p5217
S'112000000'
p5218
tp5219
aa(lp5220
(S'13'
p5221
S'70000000'
p5222
tp5223
aa(lp5224
(g15
S'85500000'
p5225
tp5226
a(g2
S'88000000'
p5227
tp5228
aa(lp5229
(g2
S'87250000'
p5230
tp5231
a(g5
S'103500000'
p5232
tp5233
aa(lp5234
(g52
S'192000000'
p5235
tp5236
a(g2
S'229250000'
p5237
tp5238
a(g52
S'191250000'
p5239
tp5240
a(g593
S'180750000'
p5241
tp5242
a(g52
S'191750000'
p5243
tp5244
a(g2
S'228750000'
p5245
tp5246
a(g593
S'180250000'
p5247
tp5248
a(g2
S'229000000'
p5249
tp5250
a(g52
S'191500000'
p5251
tp5252
aa(lp5253
(g74
S'136000000'
p5254
tp5255
a(g74
S'136250000'
p5256
tp5257
aa(lp5258
(S'15'
p5259
S'28500000'
p5260
tp5261
aa(lp5262
(g593
S'127250000'
p5263
tp5264
a(g74
S'119500000'
p5265
tp5266
a(g74
S'119250000'
p5267
tp5268
aa(lp5269
(S'22'
p5270
S'18500000'
p5271
tp5272
aa(lp5273
(S'21'
p5274
S'32250000'
p5275
tp5276
a(S'20'
p5277
S'15250000'
p5278
tp5279
aa(lp5280
(S'10'
p5281
S'8500000'
p5282
tp5283
aa(lp5284
(g593
S'180000000'
p5285
tp5286
a(g2
S'212000000'
p5287
tp5288
aa(lp5289
(g2
S'114500000'
p5290
tp5291
aa(lp5292
(g5
S'53250000'
p5293
tp5294
a(g15
S'81250000'
p5295
tp5296
a(g5
S'52500000'
p5297
tp5298
aa(lp5299
(S'10'
p5300
S'51250000'
p5301
tp5302
a(g42
S'73750000'
p5303
tp5304
aa(lp5305
(g42
S'228250000'
p5306
tp5307
a(g42
S'228500000'
p5308
tp5309
a(g5
S'176000000'
p5310
tp5311
aa(lp5312
(g136
S'28750000'
p5313
tp5314
aa(lp5315
(g593
S'28750000'
p5316
tp5317
aa(lp5318
(g52
S'38000000'
p5319
tp5320
aa(lp5321
(S'19'
p5322
S'20500000'
p5323
tp5324
a(g9
S'68750000'
p5325
tp5326
aa(lp5327
(g42
S'148500000'
p5328
tp5329
a(g2
S'132500000'
p5330
tp5331
aa(lp5332
(g42
S'228750000'
p5333
tp5334
a(g42
S'229000000'
p5335
tp5336
aa(lp5337
(S'13'
p5338
S'35000000'
p5339
tp5340
aa(lp5341
(S'11'
p5342
S'93250000'
p5343
tp5344
aa(lp5345
(S'21'
p5346
S'47000000'
p5347
tp5348
a(S'19'
p5349
S'5250000'
p5350
tp5351
aa(lp5352
(S'12'
p5353
S'83500000'
p5354
tp5355
aa(lp5356
(g42
S'239750000'
p5357
tp5358
a(g136
S'163250000'
p5359
tp5360
aa(lp5361
(S'13'
p5362
S'30750000'
p5363
tp5364
aa(lp5365
(g593
S'90250000'
p5366
tp5367
a(g593
S'90500000'
p5368
tp5369
aa(lp5370
(S'12'
p5371
S'67250000'
p5372
tp5373
aa(lp5374
(S'17'
p5375
S'19250000'
p5376
tp5377
a(S'22'
p5378
S'46750000'
p5379
tp5380
aa(lp5381
(g2
S'201750000'
p5382
tp5383
aa(lp5384
(S'16'
p5385
S'84750000'
p5386
tp5387
a(g136
S'43750000'
p5388
tp5389
aa(lp5390
(g5
S'30250000'
p5391
tp5392
aa(lp5393
(S'18'
p5394
S'76750000'
p5395
tp5396
a(S'18'
p5397
S'77000000'
p5398
tp5399
aa(lp5400
(S'19'
p5401
S'46250000'
p5402
tp5403
a(S'19'
p5404
S'46750000'
p5405
tp5406
aa(lp5407
(S'20'
p5408
S'49000000'
p5409
tp5410
a(S'20'
p5411
S'49250000'
p5412
tp5413
aa(lp5414
(S'11'
p5415
S'42500000'
p5416
tp5417
aa(lp5418
(g2
S'234000000'
p5419
tp5420
a(g5
S'175500000'
p5421
tp5422
aa(lp5423
(S'16'
p5424
S'51500000'
p5425
tp5426
a(S'16'
p5427
S'51250000'
p5428
tp5429
aa(lp5430
(g42
S'25500000'
p5431
tp5432
aa(lp5433
(g2
S'89750000'
p5434
tp5435
a(S'16'
p5436
S'46250000'
p5437
tp5438
aa(lp5439
(S'18'
p5440
S'60000000'
p5441
tp5442
aa(lp5443
(g136
S'95000000'
p5444
tp5445
aa(lp5446
(g2
S'3500000'
p5447
tp5448
aa(lp5449
(g15
S'102250000'
p5450
tp5451
aa(lp5452
(g52
S'194750000'
p5453
tp5454
aa(lp5455
(S'22'
p5456
S'44000000'
p5457
tp5458
a(S'17'
p5459
S'19500000'
p5460
tp5461
aa(lp5462
(g136
S'131750000'
p5463
tp5464
a(g136
S'131500000'
p5465
tp5466
aa(lp5467
(S'11'
p5468
S'112750000'
p5469
tp5470
aa(lp5471
(g5
S'139250000'
p5472
tp5473
a(g42
S'7000000'
p5474
tp5475
aa(lp5476
(g2
S'112000000'
p5477
tp5478
aa(lp5479
(g74
S'500000'
p5480
tp5481
aa(lp5482
(S'13'
p5483
S'82250000'
p5484
tp5485
aa(lp5486
(g593
S'6750000'
p5487
tp5488
aa(lp5489
(S'11'
p5490
S'71500000'
p5491
tp5492
aa(lp5493
(S'12'
p5494
S'132750000'
p5495
tp5496
a(g2
S'241250000'
p5497
tp5498
a(S'10'
p5499
S'134750000'
p5500
tp5501
a(g2
S'241500000'
p5502
tp5503
a(S'12'
p5504
S'133000000'
p5505
tp5506
a(S'10'
p5507
S'134500000'
p5508
tp5509
a(g2
S'241750000'
p5510
tp5511
a(S'10'
p5512
S'135000000'
p5513
tp5514
aa(lp5515
(S'19'
p5516
S'5500000'
p5517
tp5518
a(S'19'
p5519
S'5000000'
p5520
tp5521
aa(lp5522
(S'17'
p5523
S'31750000'
p5524
tp5525
aa(lp5526
(g136
S'165250000'
p5527
tp5528
a(g74
S'138500000'
p5529
tp5530
aa(lp5531
(g2
S'230250000'
p5532
tp5533
a(g5
S'166500000'
p5534
tp5535
aa(lp5536
(g42
S'21750000'
p5537
tp5538
a(S'17'
p5539
S'74000000'
p5540
tp5541
a(S'16'
p5542
S'89250000'
p5543
tp5544
a(S'22'
p5545
S'37750000'
p5546
tp5547
a(g9
S'138750000'
p5548
tp5549
a(S'14'
p5550
S'103500000'
p5551
tp5552
aa(lp5553
(g136
S'164000000'
p5554
tp5555
a(g136
S'164250000'
p5556
tp5557
a(g5
S'174500000'
p5558
tp5559
aa(lp5560
(S'21'
p5561
S'35250000'
p5562
tp5563
a(S'12'
p5564
S'25000000'
p5565
tp5566
a(S'12'
p5567
S'25250000'
p5568
tp5569
aa(lp5570
(g42
S'84000000'
p5571
tp5572
aa(lp5573
(S'15'
p5574
S'62750000'
p5575
tp5576
a(S'13'
p5577
S'45250000'
p5578
tp5579
a(S'13'
p5580
S'45500000'
p5581
tp5582
a(S'15'
p5583
S'63000000'
p5584
tp5585
aa(lp5586
(S'20'
p5587
S'7750000'
p5588
tp5589
aa(lp5590
(g2
S'101000000'
p5591
tp5592
aa(lp5593
(S'21'
p5594
S'26500000'
p5595
tp5596
a(S'20'
p5597
S'15500000'
p5598
tp5599
aa(lp5600
(S'22'
p5601
S'45250000'
p5602
tp5603
a(S'20'
p5604
S'31750000'
p5605
tp5606
aa(lp5607
(g593
S'181750000'
p5608
tp5609
a(g52
S'192250000'
p5610
tp5611
aa(lp5612
(g2
g588
tp5613
a(g5
S'178250000'
p5614
tp5615
aa(lp5616
(g5
S'115000000'
p5617
tp5618
aa(lp5619
(g52
S'189250000'
p5620
tp5621
a(g2
S'226000000'
p5622
tp5623
aa(lp5624
(S'22'
p5625
S'47000000'
p5626
tp5627
a(S'20'
p5628
S'59750000'
p5629
tp5630
a(S'20'
p5631
S'60000000'
p5632
tp5633
a(S'22'
p5634
S'47500000'
p5635
tp5636
aa(lp5637
(g42
S'158250000'
p5638
tp5639
a(g42
S'158500000'
p5640
tp5641
aa(lp5642
(g15
S'81500000'
p5643
tp5644
a(g15
S'81750000'
p5645
tp5646
a(g15
S'82000000'
p5647
tp5648
aa(lp5649
(S'12'
p5650
S'8500000'
p5651
tp5652
aa(lp5653
(S'17'
p5654
S'35500000'
p5655
tp5656
aa(lp5657
(S'13'
p5658
S'41750000'
p5659
tp5660
aa(lp5661
(g15
S'128250000'
p5662
tp5663
a(g42
S'202500000'
p5664
tp5665
aa(lp5666
(S'17'
p5667
S'16250000'
p5668
tp5669
aa(lp5670
(g42
S'230000000'
p5671
tp5672
a(g42
S'229750000'
p5673
tp5674
aa(lp5675
(g593
S'184000000'
p5676
tp5677
a(g42
S'236000000'
p5678
tp5679
a(g2
S'223500000'
p5680
tp5681
a(g42
S'235750000'
p5682
tp5683
aa(lp5684
(S'11'
p5685
S'106750000'
p5686
tp5687
aa(lp5688
(g2
S'114750000'
p5689
tp5690
aa(lp5691
(S'14'
p5692
S'79250000'
p5693
tp5694
aa(lp5695
(S'19'
p5696
S'53250000'
p5697
tp5698
a(S'19'
p5699
S'53000000'
p5700
tp5701
aa(lp5702
(S'22'
p5703
S'24250000'
p5704
tp5705
aa(lp5706
(S'19'
p5707
S'30750000'
p5708
tp5709
a(S'20'
p5710
S'19250000'
p5711
tp5712
aa(lp5713
(g9
S'23750000'
p5714
tp5715
aa(lp5716
(g2
S'4500000'
p5717
tp5718
aa(lp5719
(g52
S'151000000'
p5720
tp5721
a(g52
S'150750000'
p5722
tp5723
aa(lp5724
(g42
S'500000'
p5725
tp5726
a(g74
S'145250000'
p5727
tp5728
aa(lp5729
(g593
S'185500000'
p5730
tp5731
aa(lp5732
(g2
S'209750000'
p5733
tp5734
a(g2
S'209250000'
p5735
tp5736
a(g2
S'210000000'
p5737
tp5738
aa(lp5739
(g52
S'65000000'
p5740
tp5741
aa(lp5742
(S'14'
p5743
S'105000000'
p5744
tp5745
a(S'12'
p5746
S'132500000'
p5747
tp5748
a(S'14'
p5749
S'105250000'
p5750
tp5751
a(S'12'
p5752
S'132250000'
p5753
tp5754
a(S'14'
p5755
S'105500000'
p5756
tp5757
aa(lp5758
(S'21'
p5759
S'33250000'
p5760
tp5761
aa(lp5762
(S'10'
p5763
S'30500000'
p5764
tp5765
aa(lp5766
(g42
S'26000000'
p5767
tp5768
a(g52
S'48500000'
p5769
tp5770
aa(lp5771
(g42
S'142500000'
p5772
tp5773
aa(lp5774
(S'14'
p5775
S'30250000'
p5776
tp5777
a(S'14'
p5778
S'30000000'
p5779
tp5780
aa(lp5781
(S'22'
p5782
S'27750000'
p5783
tp5784
a(S'21'
p5785
S'39000000'
p5786
tp5787
a(S'22'
p5788
S'27500000'
p5789
tp5790
aa(lp5791
(S'14'
p5792
S'74250000'
p5793
tp5794
a(S'17'
p5795
S'41250000'
p5796
tp5797
a(S'15'
p5798
S'72500000'
p5799
tp5800
aa(lp5801
(g42
S'245250000'
p5802
tp5803
a(g42
S'245500000'
p5804
tp5805
aa(lp5806
(g593
S'31750000'
p5807
tp5808
aa(lp5809
(S'11'
p5810
S'46500000'
p5811
tp5812
aa(lp5813
(g2
S'230000000'
p5814
tp5815
a(g52
S'193000000'
p5816
tp5817
a(g593
S'181250000'
p5818
tp5819
aa(lp5820
(S'21'
p5821
S'35750000'
p5822
tp5823
a(S'20'
p5824
S'4000000'
p5825
tp5826
aa(lp5827
(g136
S'118250000'
p5828
tp5829
aa(lp5830
(g593
S'36500000'
p5831
tp5832
a(g593
S'37000000'
p5833
tp5834
a(g593
S'36750000'
p5835
tp5836
aa(lp5837
(S'18'
p5838
S'40000000'
p5839
tp5840
aa(lp5841
(g5
S'53750000'
p5842
tp5843
a(g5
S'54000000'
p5844
tp5845
aa(lp5846
(S'19'
p5847
S'8750000'
p5848
tp5849
aa(lp5850
(S'17'
p5851
S'63000000'
p5852
tp5853
aa(lp5854
(S'17'
p5855
S'18250000'
p5856
tp5857
a(g42
S'145750000'
p5858
tp5859
aa(lp5860
(S'17'
p5861
S'250000'
p5862
tp5863
a(S'22'
p5864
S'41500000'
p5865
tp5866
a(S'13'
p5867
S'115000000'
p5868
tp5869
aa(lp5870
(g2
S'216750000'
p5871
tp5872
aa(lp5873
(g74
S'141750000'
p5874
tp5875
aa(lp5876
(g2
S'82000000'
p5877
tp5878
aa(lp5879
(g52
S'109500000'
p5880
tp5881
aa(lp5882
(g42
S'22250000'
p5883
tp5884
a(S'19'
p5885
S'45250000'
p5886
tp5887
aa(lp5888
(S'12'
p5889
S'3000000'
p5890
tp5891
aa(lp5892
(S'13'
p5893
S'86250000'
p5894
tp5895
aa(lp5896
(g136
S'33750000'
p5897
tp5898
a(g136
S'34000000'
p5899
tp5900
aa(lp5901
(g2
S'89000000'
p5902
tp5903
aa(lp5904
(g593
S'136000000'
p5905
tp5906
aa(lp5907
(g593
S'35500000'
p5908
tp5909
aa(lp5910
(S'18'
p5911
S'61500000'
p5912
tp5913
aa(lp5914
(g136
S'94000000'
p5915
tp5916
aa(lp5917
(g2
S'242500000'
p5918
tp5919
a(g9
S'140500000'
p5920
tp5921
aa(lp5922
(S'16'
p5923
S'26000000'
p5924
tp5925
aa(lp5926
(S'12'
p5927
S'17250000'
p5928
tp5929
aa(lp5930
(g2
S'75750000'
p5931
tp5932
aa(lp5933
(S'14'
p5934
S'104250000'
p5935
tp5936
aa(lp5937
(g2
S'106500000'
p5938
tp5939
aa(lp5940
(g42
S'27250000'
p5941
tp5942
a(S'11'
p5943
S'76250000'
p5944
tp5945
aa(lp5946
(g136
S'42250000'
p5947
tp5948
aa(lp5949
(g2
S'28000000'
p5950
tp5951
a(S'15'
p5952
S'71750000'
p5953
tp5954
a(g2
S'28250000'
p5955
tp5956
aa(lp5957
(g15
S'14750000'
p5958
tp5959
aa(lp5960
(g42
S'203500000'
p5961
tp5962
a(g2
S'28750000'
p5963
tp5964
aa(lp5965
(S'20'
p5966
S'58250000'
p5967
tp5968
a(S'20'
p5969
S'58000000'
p5970
tp5971
a(S'22'
p5972
S'32500000'
p5973
tp5974
aa(lp5975
(S'15'
p5976
S'72250000'
p5977
tp5978
a(S'12'
p5979
S'51500000'
p5980
tp5981
aa(lp5982
(g593
S'110500000'
p5983
tp5984
aa(lp5985
(g5
S'171750000'
p5986
tp5987
a(g5
S'171500000'
p5988
tp5989
aa(lp5990
(S'12'
p5991
S'124500000'
p5992
tp5993
a(g2
S'242750000'
p5994
tp5995
aa(lp5996
(g42
S'194750000'
p5997
tp5998
aa(lp5999
(S'22'
p6000
S'35750000'
p6001
tp6002
aa(lp6003
(S'13'
p6004
S'45750000'
p6005
tp6006
aa(lp6007
(S'22'
p6008
S'40250000'
p6009
tp6010
a(S'21'
p6011
S'35500000'
p6012
tp6013
a(S'17'
p6014
S'44750000'
p6015
tp6016
a(S'15'
p6017
S'69250000'
p6018
tp6019
aa(lp6020
(g52
S'144750000'
p6021
tp6022
aa(lp6023
(S'10'
p6024
S'119500000'
p6025
tp6026
aa(lp6027
(S'17'
p6028
S'17250000'
p6029
tp6030
aa(lp6031
(g593
S'172000000'
p6032
tp6033
a(g42
S'143750000'
p6034
tp6035
aa(lp6036
(g2
S'110750000'
p6037
tp6038
aa(lp6039
(S'21'
p6040
S'27500000'
p6041
tp6042
aa(lp6043
(g136
S'42750000'
p6044
tp6045
a(S'16'
p6046
S'84000000'
p6047
tp6048
a(g136
S'43000000'
p6049
tp6050
aa(lp6051
(g15
S'147750000'
p6052
tp6053
aa(lp6054
(S'14'
p6055
S'51500000'
p6056
tp6057
aa(lp6058
(g52
S'190250000'
p6059
tp6060
a(g593
S'188500000'
p6061
tp6062
a(g593
S'187500000'
p6063
tp6064
a(g593
S'187750000'
p6065
tp6066
a(g2
S'226750000'
p6067
tp6068
a(g2
S'227000000'
p6069
tp6070
a(g52
S'189750000'
p6071
tp6072
a(g593
S'188250000'
p6073
tp6074
a(g52
S'190750000'
p6075
tp6076
a(g2
S'227250000'
p6077
tp6078
a(g593
S'188000000'
p6079
tp6080
aa(lp6081
(S'17'
p6082
S'17500000'
p6083
tp6084
a(S'21'
p6085
S'33750000'
p6086
tp6087
aa(lp6088
(S'13'
p6089
S'59000000'
p6090
tp6091
aa(lp6092
(g593
S'189500000'
p6093
tp6094
a(g42
S'234750000'
p6095
tp6096
aa(lp6097
(g136
S'154750000'
p6098
tp6099
aa(lp6100
(S'21'
p6101
S'38750000'
p6102
tp6103
a(S'22'
p6104
S'46000000'
p6105
tp6106
a(S'20'
p6107
S'48250000'
p6108
tp6109
aa(lp6110
(g5
S'92750000'
p6111
tp6112
aa(lp6113
(g136
S'68000000'
p6114
tp6115
aa(lp6116
(S'11'
p6117
S'76000000'
p6118
tp6119
a(g74
S'124250000'
p6120
tp6121
a(S'11'
p6122
S'75750000'
p6123
tp6124
a(S'15'
p6125
S'66500000'
p6126
tp6127
a(g52
S'196000000'
p6128
tp6129
a(g42
S'24750000'
p6130
tp6131
aa(lp6132
(g15
S'129250000'
p6133
tp6134
a(g2
S'25750000'
p6135
tp6136
a(g52
S'196750000'
p6137
tp6138
aa(lp6139
(g5
S'19500000'
p6140
tp6141
aa(lp6142
(S'17'
p6143
S'19000000'
p6144
tp6145
aa(lp6146
(g593
S'33250000'
p6147
tp6148
aa(lp6149
(S'18'
p6150
S'26500000'
p6151
tp6152
a(S'18'
p6153
S'27000000'
p6154
tp6155
a(S'18'
p6156
S'26250000'
p6157
tp6158
a(S'18'
p6159
S'26750000'
p6160
tp6161
aa(lp6162
(g5
S'70250000'
p6163
tp6164
a(S'13'
p6165
S'86750000'
p6166
tp6167
aa(lp6168
(g2
S'107500000'
p6169
tp6170
aa(lp6171
(S'10'
p6172
S'30250000'
p6173
tp6174
aa(lp6175
(g593
S'131750000'
p6176
tp6177
aa(lp6178
(S'11'
p6179
S'2500000'
p6180
tp6181
aa(lp6182
(g2
S'178000000'
p6183
tp6184
aa(lp6185
(g42
S'145500000'
p6186
tp6187
aa(lp6188
(g74
S'125250000'
p6189
tp6190
a(g136
S'129750000'
p6191
tp6192
aa(lp6193
(S'17'
p6194
S'62000000'
p6195
tp6196
a(g42
S'24500000'
p6197
tp6198
aa(lp6199
(g2
S'59250000'
p6200
tp6201
aa(lp6202
(g52
S'194000000'
p6203
tp6204
a(g52
S'194250000'
p6205
tp6206
aa(lp6207
(g42
S'8750000'
p6208
tp6209
a(g2
S'202500000'
p6210
tp6211
aa(lp6212
(S'11'
p6213
S'41000000'
p6214
tp6215
aa(lp6216
(g42
S'11000000'
p6217
tp6218
a(g52
S'195500000'
p6219
tp6220
a(g2
S'219750000'
p6221
tp6222
a(g42
S'10750000'
p6223
tp6224
a(g52
S'195250000'
p6225
tp6226
aa(lp6227
(S'19'
p6228
S'9000000'
p6229
tp6230
a(S'19'
p6231
S'9250000'
p6232
tp6233
aa(lp6234
(g136
S'27750000'
p6235
tp6236
aa(lp6237
(S'11'
p6238
S'72750000'
p6239
tp6240
a(S'10'
p6241
S'104750000'
p6242
tp6243
a(g42
S'21250000'
p6244
tp6245
aa(lp6246
(g74
S'11750000'
p6247
tp6248
aa(lp6249
(g2
S'74750000'
p6250
tp6251
aa(lp6252
(S'19'
p6253
S'3250000'
p6254
tp6255
a(g9
S'137000000'
p6256
tp6257
a(S'17'
p6258
S'43000000'
p6259
tp6260
a(S'16'
p6261
S'67250000'
p6262
tp6263
aa(lp6264
(S'10'
p6265
S'81250000'
p6266
tp6267
aa(lp6268
(g42
S'2250000'
p6269
tp6270
a(g5
S'175750000'
p6271
tp6272
a(g42
S'2000000'
p6273
tp6274
aa(lp6275
(g74
S'24500000'
p6276
tp6277
aa(lp6278
(g136
S'123750000'
p6279
tp6280
a(g593
S'132000000'
p6281
tp6282
aa(lp6283
(S'18'
p6284
S'10000000'
p6285
tp6286
a(S'21'
p6287
S'40250000'
p6288
tp6289
a(S'18'
p6290
S'10250000'
p6291
tp6292
aa(lp6293
(g15
S'45750000'
p6294
tp6295
aa(lp6296
(S'10'
p6297
S'30000000'
p6298
tp6299
a(S'21'
p6300
S'36000000'
p6301
tp6302
aa(lp6303
(S'18'
p6304
S'60500000'
p6305
tp6306
aa(lp6307
(g42
S'107750000'
p6308
tp6309
aa(lp6310
(g593
S'7500000'
p6311
tp6312
a(g593
S'7000000'
p6313
tp6314
a(S'20'
p6315
S'60500000'
p6316
tp6317
a(g593
S'7250000'
p6318
tp6319
aa(lp6320
(g136
S'33250000'
p6321
tp6322
aa(lp6323
(S'14'
p6324
S'74750000'
p6325
tp6326
a(S'17'
p6327
S'47500000'
p6328
tp6329
aa(lp6330
(S'19'
p6331
S'41750000'
p6332
tp6333
aa(lp6334
(S'13'
p6335
S'84750000'
p6336
tp6337
aa(lp6338
(g593
S'92250000'
p6339
tp6340
aa(lp6341
(g5
S'105500000'
p6342
tp6343
aa(lp6344
(S'12'
p6345
S'133250000'
p6346
tp6347
a(g2
S'242250000'
p6348
tp6349
a(g2
S'242000000'
p6350
tp6351
aa(lp6352
(g9
S'103000000'
p6353
tp6354
aa(lp6355
(g52
S'46500000'
p6356
tp6357
a(g9
S'129750000'
p6358
tp6359
aa(lp6360
(g42
S'7250000'
p6361
tp6362
a(g52
S'170250000'
p6363
tp6364
a(g2
S'217250000'
p6365
tp6366
aa(lp6367
(S'13'
p6368
S'71250000'
p6369
tp6370
aa(lp6371
(g2
S'104000000'
p6372
tp6373
a(g2
S'104500000'
p6374
tp6375
a(g2
S'104750000'
p6376
tp6377
aa(lp6378
(g9
S'106750000'
p6379
tp6380
aa(lp6381
(g136
S'168250000'
p6382
tp6383
aa(lp6384
(S'11'
p6385
S'92250000'
p6386
tp6387
aa(lp6388
(g593
S'139250000'
p6389
tp6390
a(g593
S'139500000'
p6391
tp6392
a(g593
S'139750000'
p6393
tp6394
aa(lp6395
(g2
S'1500000'
p6396
tp6397
a(g136
S'169500000'
p6398
tp6399
aa(lp6400
(g52
S'4750000'
p6401
tp6402
aa(lp6403
(S'17'
p6404
S'40250000'
p6405
tp6406
a(S'10'
p6407
S'76750000'
p6408
tp6409
aa(lp6410
(S'20'
p6411
S'36000000'
p6412
tp6413
aa(lp6414
(S'17'
p6415
S'15250000'
p6416
tp6417
aa(lp6418
(g593
S'80000000'
p6419
tp6420
aa(lp6421
(g2
S'85000000'
p6422
tp6423
aa(lp6424
(g52
S'187500000'
p6425
tp6426
aa(lp6427
(S'10'
p6428
S'119250000'
p6429
tp6430
aa(lp6431
(S'20'
p6432
S'14000000'
p6433
tp6434
aa(lp6435
(g52
g588
tp6436
aa(lp6437
(g52
S'50250000'
p6438
tp6439
aa(lp6440
(g42
S'248500000'
p6441
tp6442
aa(lp6443
(g593
S'113500000'
p6444
tp6445
aa(lp6446
(g5
S'114750000'
p6447
tp6448
a(g5
S'114500000'
p6449
tp6450
aa(lp6451
(S'10'
p6452
S'73750000'
p6453
tp6454
aa(lp6455
(S'13'
p6456
S'58750000'
p6457
tp6458
aa(lp6459
(S'18'
p6460
S'43750000'
p6461
tp6462
aa(lp6463
(S'19'
p6464
S'55000000'
p6465
tp6466
aa(lp6467
(g42
S'242000000'
p6468
tp6469
a(g136
S'160750000'
p6470
tp6471
aa(lp6472
(S'15'
p6473
S'32750000'
p6474
tp6475
aa(lp6476
(g42
S'146500000'
p6477
tp6478
aa(lp6479
(S'13'
p6480
S'65500000'
p6481
tp6482
aa(lp6483
(S'20'
p6484
S'41750000'
p6485
tp6486
aa(lp6487
(g42
S'77250000'
p6488
tp6489
aa(lp6490
(g593
S'183750000'
p6491
tp6492
a(g2
S'236000000'
p6493
tp6494
a(g5
S'174750000'
p6495
tp6496
aa(lp6497
(g2
S'78000000'
p6498
tp6499
a(S'16'
p6500
S'32000000'
p6501
tp6502
aa(lp6503
(g15
S'20750000'
p6504
tp6505
aa(lp6506
(g5
S'113000000'
p6507
tp6508
aa(lp6509
(g74
S'73250000'
p6510
tp6511
aa(lp6512
(S'15'
p6513
S'22250000'
p6514
tp6515
aa(lp6516
(g52
S'182000000'
p6517
tp6518
a(g52
S'181500000'
p6519
tp6520
aa(lp6521
(g5
S'9500000'
p6522
tp6523
a(g5
S'9250000'
p6524
tp6525
aa(lp6526
(S'17'
p6527
S'61500000'
p6528
tp6529
aa(lp6530
(g2
S'87500000'
p6531
tp6532
aa(lp6533
(g42
S'23000000'
p6534
tp6535
a(g9
S'132000000'
p6536
tp6537
a(S'10'
p6538
S'71500000'
p6539
tp6540
a(S'10'
p6541
S'71000000'
p6542
tp6543
a(g136
S'35000000'
p6544
tp6545
a(S'15'
p6546
S'68750000'
p6547
tp6548
aa(lp6549
(g74
S'119750000'
p6550
tp6551
a(g593
S'125250000'
p6552
tp6553
a(g74
S'120000000'
p6554
tp6555
aa(lp6556
(S'20'
p6557
S'20750000'
p6558
tp6559
a(S'19'
p6560
S'32250000'
p6561
tp6562
aa(lp6563
(S'18'
p6564
S'27500000'
p6565
tp6566
aa(lp6567
(g9
S'78000000'
p6568
tp6569
aa(lp6570
(S'14'
p6571
S'21250000'
p6572
tp6573
aa(lp6574
(S'19'
p6575
S'55250000'
p6576
tp6577
aa(lp6578
(g42
S'238250000'
p6579
tp6580
a(g136
S'162250000'
p6581
tp6582
aa(lp6583
(S'15'
p6584
S'64000000'
p6585
tp6586
a(S'10'
p6587
S'32250000'
p6588
tp6589
aa(lp6590
(g593
S'34750000'
p6591
tp6592
aa(lp6593
(S'14'
p6594
S'29500000'
p6595
tp6596
aa(lp6597
(g2
S'202250000'
p6598
tp6599
aa(lp6600
(S'16'
p6601
S'61500000'
p6602
tp6603
aa(lp6604
(g74
S'5000000'
p6605
tp6606
aa(lp6607
(g2
S'218500000'
p6608
tp6609
aa(lp6610
(g9
S'36250000'
p6611
tp6612
aa(lp6613
(g15
S'79250000'
p6614
tp6615
a(g593
S'125750000'
p6616
tp6617
a(g136
S'132500000'
p6618
tp6619
a(g136
S'132250000'
p6620
tp6621
a(g593
S'126750000'
p6622
tp6623
a(g15
S'80000000'
p6624
tp6625
a(g136
S'132000000'
p6626
tp6627
a(g15
S'79750000'
p6628
tp6629
a(g593
S'126500000'
p6630
tp6631
a(g15
S'79500000'
p6632
tp6633
a(g593
S'126000000'
p6634
tp6635
aa(lp6636
(g593
S'60250000'
p6637
tp6638
a(g593
S'58750000'
p6639
tp6640
a(g593
S'59750000'
p6641
tp6642
a(g593
S'58500000'
p6643
tp6644
a(g593
S'60750000'
p6645
tp6646
a(g593
S'60500000'
p6647
tp6648
aa(lp6649
(g2
S'211750000'
p6650
tp6651
a(g593
S'179750000'
p6652
tp6653
aa(lp6654
(g15
S'142000000'
p6655
tp6656
aa(lp6657
(g5
S'120250000'
p6658
tp6659
a(g5
S'121000000'
p6660
tp6661
aa(lp6662
(g136
S'135500000'
p6663
tp6664
a(g136
S'135250000'
p6665
tp6666
aa(lp6667
(g593
S'97750000'
p6668
tp6669
aa(lp6670
(g2
S'228000000'
p6671
tp6672
aa(lp6673
(S'16'
p6674
S'9500000'
p6675
tp6676
aa(lp6677
(g593
S'166500000'
p6678
tp6679
a(g593
S'167000000'
p6680
tp6681
aa(lp6682
(S'11'
p6683
S'96250000'
p6684
tp6685
a(g42
S'149500000'
p6686
tp6687
aa(lp6688
(S'21'
p6689
S'43250000'
p6690
tp6691
a(g5
S'250000'
p6692
tp6693
aa(lp6694
(g5
S'179750000'
p6695
tp6696
a(g15
S'156750000'
p6697
tp6698
a(g136
S'170500000'
p6699
tp6700
aa(lp6701
(g2
S'111250000'
p6702
tp6703
aa(lp6704
(g42
S'26750000'
p6705
tp6706
a(g15
S'99750000'
p6707
tp6708
a(S'22'
p6709
S'39250000'
p6710
tp6711
a(S'17'
p6712
S'76000000'
p6713
tp6714
a(g42
S'26500000'
p6715
tp6716
a(S'11'
p6717
S'66250000'
p6718
tp6719
aa(lp6720
(g74
S'56000000'
p6721
tp6722
a(g74
S'56250000'
p6723
tp6724
aa(lp6725
(S'15'
p6726
S'76500000'
p6727
tp6728
aa(lp6729
(g136
S'97000000'
p6730
tp6731
aa(lp6732
(S'13'
p6733
S'69750000'
p6734
tp6735
aa(lp6736
(S'20'
p6737
S'13500000'
p6738
tp6739
aa(lp6740
(g15
S'100250000'
p6741
tp6742
a(g15
S'100750000'
p6743
tp6744
a(S'11'
p6745
S'65250000'
p6746
tp6747
a(S'17'
p6748
S'42750000'
p6749
tp6750
aa(lp6751
(S'14'
p6752
S'42000000'
p6753
tp6754
aa(lp6755
(g42
S'61000000'
p6756
tp6757
a(g42
S'60750000'
p6758
tp6759
aa(lp6760
(g74
S'65750000'
p6761
tp6762
a(g74
S'66000000'
p6763
tp6764
a(g74
S'65500000'
p6765
tp6766
aa(lp6767
(g42
S'108000000'
p6768
tp6769
aa(lp6770
(S'13'
p6771
S'104500000'
p6772
tp6773
aa(lp6774
(g2
S'214750000'
p6775
tp6776
a(g593
S'180500000'
p6777
tp6778
aa(lp6779
(S'14'
p6780
S'107250000'
p6781
tp6782
a(g74
g588
tp6783
a(g593
S'191000000'
p6784
tp6785
aa(lp6786
(S'12'
p6787
S'125000000'
p6788
tp6789
a(g2
S'217500000'
p6790
tp6791
a(g52
S'197000000'
p6792
tp6793
aa(lp6794
(g52
S'47500000'
p6795
tp6796
a(g52
S'47750000'
p6797
tp6798
aa(lp6799
(S'10'
p6800
S'131250000'
p6801
tp6802
aa(lp6803
(S'12'
p6804
S'114500000'
p6805
tp6806
aa(lp6807
(g5
S'24000000'
p6808
tp6809
aa(lp6810
(g2
S'224250000'
p6811
tp6812
a(g42
S'241750000'
p6813
tp6814
a(g2
S'224500000'
p6815
tp6816
a(g2
S'223750000'
p6817
tp6818
aa(lp6819
(S'16'
p6820
S'13250000'
p6821
tp6822
aa(lp6823
(S'21'
p6824
S'34750000'
p6825
tp6826
a(S'20'
p6827
S'3750000'
p6828
tp6829
aa(lp6830
(S'18'
p6831
S'39750000'
p6832
tp6833
aa(lp6834
(g5
S'27500000'
p6835
tp6836
aa(lp6837
(S'19'
p6838
S'31500000'
p6839
tp6840
aa(lp6841
(S'16'
p6842
S'4750000'
p6843
tp6844
a(S'19'
p6845
S'11000000'
p6846
tp6847
aa(lp6848
(S'14'
p6849
S'102250000'
p6850
tp6851
a(S'12'
p6852
S'123750000'
p6853
tp6854
aa(lp6855
(g74
S'125500000'
p6856
tp6857
aa(lp6858
(S'15'
p6859
S'47000000'
p6860
tp6861
a(g9
S'69250000'
p6862
tp6863
aa(lp6864
(S'11'
p6865
S'90500000'
p6866
tp6867
aa(lp6868
(S'12'
p6869
S'57750000'
p6870
tp6871
a(S'12'
p6872
S'58000000'
p6873
tp6874
aa(lp6875
(g52
S'59000000'
p6876
tp6877
a(g52
S'59250000'
p6878
tp6879
a(g52
S'59500000'
p6880
tp6881
a(g52
S'59750000'
p6882
tp6883
aa(lp6884
(S'13'
p6885
S'92000000'
p6886
tp6887
aa(lp6888
(S'11'
p6889
S'42250000'
p6890
tp6891
aa(lp6892
(S'18'
p6893
S'12000000'
p6894
tp6895
a(S'18'
p6896
S'11500000'
p6897
tp6898
aa(lp6899
(S'21'
p6900
S'26250000'
p6901
tp6902
a(S'20'
p6903
S'7000000'
p6904
tp6905
a(S'20'
p6906
S'7250000'
p6907
tp6908
a(S'20'
p6909
S'6750000'
p6910
tp6911
aa(lp6912
(g136
S'163500000'
p6913
tp6914
a(g42
S'241000000'
p6915
tp6916
a(g42
S'241250000'
p6917
tp6918
aa(lp6919
(g2
S'179500000'
p6920
tp6921
aa(lp6922
(g136
S'51750000'
p6923
tp6924
aa(lp6925
(g74
S'15750000'
p6926
tp6927
a(g74
S'16000000'
p6928
tp6929
aa(lp6930
(g593
S'22750000'
p6931
tp6932
aa(lp6933
(g15
S'149750000'
p6934
tp6935
aa(lp6936
(g52
S'250000'
p6937
tp6938
aa(lp6939
(S'22'
p6940
S'19500000'
p6941
tp6942
a(S'17'
p6943
S'4250000'
p6944
tp6945
a(S'22'
p6946
S'18750000'
p6947
tp6948
aa(lp6949
(S'11'
p6950
S'71250000'
p6951
tp6952
aa(lp6953
(g136
S'44000000'
p6954
tp6955
aa(lp6956
(g2
S'230500000'
p6957
tp6958
aa(lp6959
(g5
S'17500000'
p6960
tp6961
aa(lp6962
(S'12'
p6963
S'45250000'
p6964
tp6965
a(S'12'
p6966
S'45000000'
p6967
tp6968
aa(lp6969
(g74
S'118750000'
p6970
tp6971
a(g74
S'119000000'
p6972
tp6973
aa(lp6974
(S'19'
p6975
S'7250000'
p6976
tp6977
aa(lp6978
(S'12'
p6979
S'50000000'
p6980
tp6981
a(g136
S'35250000'
p6982
tp6983
aa(lp6984
(g52
S'86500000'
p6985
tp6986
aa(lp6987
(S'10'
p6988
S'92250000'
p6989
tp6990
aa(lp6991
(g136
S'27500000'
p6992
tp6993
a(g136
S'27250000'
p6994
tp6995
aa(lp6996
(g593
S'133750000'
p6997
tp6998
aa(lp6999
(g2
S'240000000'
p7000
tp7001
aa(lp7002
(S'22'
p7003
S'40000000'
p7004
tp7005
a(S'10'
p7006
S'72250000'
p7007
tp7008
a(S'15'
p7009
S'73500000'
p7010
tp7011
aa(lp7012
(g42
S'175500000'
p7013
tp7014
aa(lp7015
(S'20'
p7016
S'4250000'
p7017
tp7018
aa(lp7019
(S'15'
p7020
S'44250000'
p7021
tp7022
aa(lp7023
(g42
S'230250000'
p7024
tp7025
aa(lp7026
(S'16'
p7027
S'52250000'
p7028
tp7029
a(S'16'
p7030
S'52000000'
p7031
tp7032
a(S'16'
p7033
S'52500000'
p7034
tp7035
aa(lp7036
(g5
S'107500000'
p7037
tp7038
aa(lp7039
(S'18'
p7040
S'58000000'
p7041
tp7042
aa(lp7043
(g74
S'4000000'
p7044
tp7045
aa(lp7046
(g136
S'37000000'
p7047
tp7048
aa(lp7049
(g9
S'9500000'
p7050
tp7051
a(g9
S'9750000'
p7052
tp7053
aa(lp7054
(S'20'
p7055
S'33500000'
p7056
tp7057
a(S'14'
p7058
S'75250000'
p7059
tp7060
a(S'15'
p7061
S'68500000'
p7062
tp7063
aa(lp7064
(g52
S'53750000'
p7065
tp7066
a(g52
S'53500000'
p7067
tp7068
aa(lp7069
(S'12'
p7070
S'8250000'
p7071
tp7072
aa(lp7073
(g52
S'172750000'
p7074
tp7075
aa(lp7076
(g136
S'97750000'
p7077
tp7078
aa(lp7079
(S'19'
p7080
S'43000000'
p7081
tp7082
aa(lp7083
(g5
S'89250000'
p7084
tp7085
aa(lp7086
(S'12'
p7087
S'49000000'
p7088
tp7089
aa(lp7090
(S'10'
p7091
S'111250000'
p7092
tp7093
aa(lp7094
(g42
S'160250000'
p7095
tp7096
aa(lp7097
(g593
S'96750000'
p7098
tp7099
a(g9
S'44250000'
p7100
tp7101
aa(lp7102
(g2
S'243000000'
p7103
tp7104
a(g74
S'146250000'
p7105
tp7106
a(g42
g588
tp7107
a(S'12'
p7108
S'133750000'
p7109
tp7110
aa(lp7111
(S'14'
p7112
S'79500000'
p7113
tp7114
aa(lp7115
(g5
S'172000000'
p7116
tp7117
a(g2
S'239750000'
p7118
tp7119
aa(lp7120
(g2
S'124250000'
p7121
tp7122
aa(lp7123
(g15
S'38500000'
p7124
tp7125
aa(lp7126
(g42
S'110500000'
p7127
tp7128
a(g42
S'110750000'
p7129
tp7130
aa(lp7131
(g5
S'24750000'
p7132
tp7133
aa(lp7134
(S'18'
p7135
S'50500000'
p7136
tp7137
aa(lp7138
(S'20'
p7139
S'12500000'
p7140
tp7141
a(S'21'
p7142
S'27750000'
p7143
tp7144
a(S'20'
p7145
S'12250000'
p7146
tp7147
aa(lp7148
(g15
S'101250000'
p7149
tp7150
a(g15
S'101750000'
p7151
tp7152
a(S'17'
p7153
S'37250000'
p7154
tp7155
a(g9
S'134500000'
p7156
tp7157
aa(lp7158
(g136
S'1500000'
p7159
tp7160
aa(lp7161
(g9
S'24750000'
p7162
tp7163
a(S'15'
p7164
S'23250000'
p7165
tp7166
aa(lp7167
(S'14'
p7168
S'74500000'
p7169
tp7170
a(S'15'
p7171
S'64250000'
p7172
tp7173
a(S'17'
p7174
S'43500000'
p7175
tp7176
aa(lp7177
(S'17'
p7178
S'51250000'
p7179
tp7180
aa(lp7181
(g42
S'213500000'
p7182
tp7183
a(g42
S'213750000'
p7184
tp7185
aa(lp7186
(S'20'
p7187
S'21250000'
p7188
tp7189
aa(lp7190
(g136
S'166250000'
p7191
tp7192
aa(lp7193
(S'11'
p7194
S'46250000'
p7195
tp7196
aa(lp7197
(g2
S'239250000'
p7198
tp7199
aa(lp7200
(g2
S'210250000'
p7201
tp7202
a(g593
S'181500000'
p7203
tp7204
aa(lp7205
(S'12'
p7206
S'250000'
p7207
tp7208
a(S'18'
p7209
S'77750000'
p7210
tp7211
a(g5
g588
tp7212
aa(lp7213
(g593
S'141250000'
p7214
tp7215
aa(lp7216
(g15
S'50250000'
p7217
tp7218
aa(lp7219
(S'12'
p7220
S'98250000'
p7221
tp7222
aa(lp7223
(g42
S'239000000'
p7224
tp7225
aa(lp7226
(g74
S'143750000'
p7227
tp7228
a(g42
S'18750000'
p7229
tp7230
a(g74
S'144000000'
p7231
tp7232
a(g42
S'19000000'
p7233
tp7234
aa(lp7235
(g593
S'18000000'
p7236
tp7237
aa(lp7238
(g2
S'106000000'
p7239
tp7240
aa(lp7241
(g74
S'124500000'
p7242
tp7243
aa(lp7244
(g52
S'180250000'
p7245
tp7246
a(g52
S'179750000'
p7247
tp7248
a(g52
S'180000000'
p7249
tp7250
aa(lp7251
(S'18'
p7252
S'13000000'
p7253
tp7254
a(S'21'
p7255
S'33500000'
p7256
tp7257
aa(lp7258
(g15
S'8500000'
p7259
tp7260
aa(lp7261
(g5
S'85000000'
p7262
tp7263
a(g5
S'85500000'
p7264
tp7265
a(g5
S'85250000'
p7266
tp7267
aa(lp7268
(g52
S'171000000'
p7269
tp7270
a(g2
S'217000000'
p7271
tp7272
aa(lp7273
(S'13'
p7274
S'96750000'
p7275
tp7276
aa(lp7277
(g2
S'226500000'
p7278
tp7279
a(g52
S'190000000'
p7280
tp7281
aa(lp7282
(g15
S'55250000'
p7283
tp7284
aa(lp7285
(g42
S'16000000'
p7286
tp7287
aa(lp7288
(S'17'
p7289
S'80750000'
p7290
tp7291
a(S'14'
p7292
S'103250000'
p7293
tp7294
a(S'14'
p7295
S'103000000'
p7296
tp7297
aa(lp7298
(S'13'
p7299
S'23500000'
p7300
tp7301
a(S'13'
p7302
S'23250000'
p7303
tp7304
aa(lp7305
(S'11'
p7306
S'81750000'
p7307
tp7308
aa(lp7309
(g5
S'128250000'
p7310
tp7311
a(g5
S'128000000'
p7312
tp7313
aa(lp7314
(g42
S'107250000'
p7315
tp7316
aa(lp7317
(g136
S'159500000'
p7318
tp7319
a(g42
S'236750000'
p7320
tp7321
a(g136
S'159750000'
p7322
tp7323
aa(lp7324
(S'11'
p7325
S'40500000'
p7326
tp7327
aa(lp7328
(g15
S'94750000'
p7329
tp7330
aa(lp7331
(g42
S'149250000'
p7332
tp7333
a(g15
S'64500000'
p7334
tp7335
aa(lp7336
(g5
S'55000000'
p7337
tp7338
aa(lp7339
(g52
S'1250000'
p7340
tp7341
aa(lp7342
(g593
S'190500000'
p7343
tp7344
a(g593
S'190250000'
p7345
tp7346
aa(lp7347
(S'10'
p7348
S'122750000'
p7349
tp7350
a(S'10'
p7351
S'123250000'
p7352
tp7353
a(S'10'
p7354
S'123000000'
p7355
tp7356
aa(lp7357
(g593
S'167250000'
p7358
tp7359
a(S'11'
p7360
S'89500000'
p7361
tp7362
aa(lp7363
(g15
S'76250000'
p7364
tp7365
a(g42
S'83500000'
p7366
tp7367
aa(lp7368
(g52
S'160750000'
p7369
tp7370
aa(lp7371
(g42
S'144000000'
p7372
tp7373
aa(lp7374
(S'21'
p7375
S'43500000'
p7376
tp7377
a(S'22'
p7378
S'28000000'
p7379
tp7380
aa(lp7381
(g52
S'87500000'
p7382
tp7383
a(g52
S'87250000'
p7384
tp7385
aa(lp7386
(g136
S'26500000'
p7387
tp7388
aa(lp7389
(g2
S'239000000'
p7390
tp7391
aa(lp7392
(S'14'
p7393
S'99500000'
p7394
tp7395
aa(lp7396
(S'21'
p7397
S'26750000'
p7398
tp7399
aa(lp7400
(S'13'
p7401
S'75000000'
p7402
tp7403
aa(lp7404
(g593
S'141500000'
p7405
tp7406
aa(lp7407
(S'21'
p7408
S'30750000'
p7409
tp7410
a(S'20'
p7411
S'13250000'
p7412
tp7413
aa(lp7414
(S'12'
p7415
S'11500000'
p7416
tp7417
aa(lp7418
(g52
S'5000000'
p7419
tp7420
aa(lp7421
(g74
S'103000000'
p7422
tp7423
aa(lp7424
(S'11'
p7425
S'60000000'
p7426
tp7427
aa(lp7428
(g52
S'146250000'
p7429
tp7430
aa(lp7431
(g9
S'66250000'
p7432
tp7433
a(S'16'
p7434
S'18250000'
p7435
tp7436
aa(lp7437
(S'16'
p7438
S'12750000'
p7439
tp7440
aa(lp7441
(g42
S'49250000'
p7442
tp7443
aa(lp7444
(S'20'
p7445
S'57000000'
p7446
tp7447
aa(lp7448
(S'18'
p7449
S'25250000'
p7450
tp7451
a(S'18'
p7452
S'25000000'
p7453
tp7454
aa(lp7455
(g42
S'235250000'
p7456
tp7457
a(g42
S'235500000'
p7458
tp7459
aa(lp7460
(S'11'
p7461
S'2250000'
p7462
tp7463
a(g593
S'3500000'
p7464
tp7465
a(S'11'
p7466
S'2000000'
p7467
tp7468
aa(lp7469
(g15
S'39500000'
p7470
tp7471
aa(lp7472
(S'21'
p7473
S'31000000'
p7474
tp7475
aa(lp7476
(S'20'
p7477
S'59500000'
p7478
tp7479
a(S'20'
p7480
S'58750000'
p7481
tp7482
a(S'20'
p7483
S'59000000'
p7484
tp7485
a(S'20'
p7486
S'59250000'
p7487
tp7488
a(S'19'
p7489
S'32500000'
p7490
tp7491
aa(lp7492
(g136
S'167000000'
p7493
tp7494
a(g42
S'15250000'
p7495
tp7496
aa(lp7497
(g15
S'158250000'
p7498
tp7499
a(g136
S'170000000'
p7500
tp7501
aa(lp7502
(g52
S'122750000'
p7503
tp7504
aa(lp7505
(g5
S'99250000'
p7506
tp7507
aa(lp7508
(g42
S'210250000'
p7509
tp7510
aa(lp7511
(g136
S'500000'
p7512
tp7513
aa(lp7514
(g52
S'9000000'
p7515
tp7516
aa(lp7517
(g15
S'125750000'
p7518
tp7519
a(g15
S'126000000'
p7520
tp7521
aa(lp7522
(S'14'
p7523
S'57500000'
p7524
tp7525
aa(lp7526
(S'12'
p7527
S'101500000'
p7528
tp7529
aa(lp7530
(S'11'
p7531
S'70000000'
p7532
tp7533
aa(lp7534
(g15
S'51250000'
p7535
tp7536
aa(lp7537
(S'14'
p7538
S'75000000'
p7539
tp7540
a(S'20'
p7541
S'33750000'
p7542
tp7543
aa(lp7544
(g593
S'21000000'
p7545
tp7546
aa(lp7547
(g74
S'35250000'
p7548
tp7549
a(g74
S'33750000'
p7550
tp7551
a(g74
S'34750000'
p7552
tp7553
a(g74
S'34500000'
p7554
tp7555
a(g74
S'34250000'
p7556
tp7557
aa(lp7558
(g5
S'148250000'
p7559
tp7560
aa(lp7561
(g52
S'126500000'
p7562
tp7563
a(g42
S'26250000'
p7564
tp7565
a(g52
S'126250000'
p7566
tp7567
aa(lp7568
(S'17'
p7569
S'18000000'
p7570
tp7571
a(S'22'
p7572
S'43500000'
p7573
tp7574
a(S'21'
p7575
S'34500000'
p7576
tp7577
aa(lp7578
(S'11'
p7579
S'108500000'
p7580
tp7581
aa(lp7582
(S'14'
p7583
S'52500000'
p7584
tp7585
a(S'14'
p7586
S'52750000'
p7587
tp7588
aa(lp7589
(g5
S'171000000'
p7590
tp7591
a(g2
S'239500000'
p7592
tp7593
aa(lp7594
(g52
S'53250000'
p7595
tp7596
aa(lp7597
(S'10'
p7598
S'1000000'
p7599
tp7600
aa(lp7601
(g42
S'7500000'
p7602
tp7603
aa(lp7604
(g593
S'62500000'
p7605
tp7606
aa(lp7607
(S'15'
p7608
S'68250000'
p7609
tp7610
a(S'17'
p7611
S'61250000'
p7612
tp7613
a(g42
S'28250000'
p7614
tp7615
a(S'17'
p7616
S'61000000'
p7617
tp7618
aa(lp7619
(g136
S'88250000'
p7620
tp7621
aa(lp7622
(g593
S'178500000'
p7623
tp7624
a(g2
S'215750000'
p7625
tp7626
aa(lp7627
(S'22'
p7628
S'26250000'
p7629
tp7630
a(S'20'
p7631
S'22000000'
p7632
tp7633
a(S'20'
p7634
S'21750000'
p7635
tp7636
aa(lp7637
(g593
S'70750000'
p7638
tp7639
aa(lp7640
(S'15'
p7641
S'43750000'
p7642
tp7643
aa(lp7644
(S'22'
p7645
S'31000000'
p7646
tp7647
a(S'17'
p7648
S'41750000'
p7649
tp7650
aa(lp7651
(g5
S'1250000'
p7652
tp7653
a(g5
S'1000000'
p7654
tp7655
a(g5
S'1500000'
p7656
tp7657
aa(lp7658
(S'16'
p7659
S'18500000'
p7660
tp7661
a(g15
S'85750000'
p7662
tp7663
aa(lp7664
(g52
S'2250000'
p7665
tp7666
aa(lp7667
(g42
S'200500000'
p7668
tp7669
aa(lp7670
(S'17'
p7671
S'47000000'
p7672
tp7673
aa(lp7674
(g15
S'14500000'
p7675
tp7676
aa(lp7677
(S'12'
p7678
S'63500000'
p7679
tp7680
aa(lp7681
(g42
S'3750000'
p7682
tp7683
a(g5
S'177250000'
p7684
tp7685
a(g5
S'177000000'
p7686
tp7687
aa(lp7688
(g15
S'77250000'
p7689
tp7690
a(g593
S'129000000'
p7691
tp7692
aa(lp7693
(S'10'
p7694
S'102500000'
p7695
tp7696
aa(lp7697
(g593
S'95000000'
p7698
tp7699
aa(lp7700
(g5
S'138250000'
p7701
tp7702
aa(lp7703
(S'12'
p7704
S'52000000'
p7705
tp7706
aa(lp7707
(g74
S'121250000'
p7708
tp7709
a(g136
S'133250000'
p7710
tp7711
a(g74
S'121000000'
p7712
tp7713
aa(lp7714
(S'15'
p7715
S'70250000'
p7716
tp7717
a(S'14'
p7718
S'101000000'
p7719
tp7720
aa(lp7721
(g593
S'140500000'
p7722
tp7723
aa(lp7724
(g15
S'35500000'
p7725
tp7726
aa(lp7727
(S'21'
p7728
S'19000000'
p7729
tp7730
aa(lp7731
(S'12'
p7732
S'26500000'
p7733
tp7734
aa(lp7735
(g42
S'196750000'
p7736
tp7737
aa(lp7738
(g9
S'67250000'
p7739
tp7740
a(g52
S'96000000'
p7741
tp7742
aa(lp7743
(g42
S'231000000'
p7744
tp7745
aa(lp7746
(g42
S'245000000'
p7747
tp7748
aa(lp7749
(S'16'
p7750
S'13750000'
p7751
tp7752
aa(lp7753
(S'11'
p7754
S'99500000'
p7755
tp7756
aa(lp7757
(S'20'
p7758
S'10000000'
p7759
tp7760
aa(lp7761
(g15
S'121750000'
p7762
tp7763
aa(lp7764
(g42
S'238500000'
p7765
tp7766
a(g42
S'238750000'
p7767
tp7768
aa(lp7769
(S'20'
p7770
S'54750000'
p7771
tp7772
aa(lp7773
(S'22'
p7774
S'50750000'
p7775
tp7776
a(S'17'
p7777
S'7250000'
p7778
tp7779
aa(lp7780
(g5
S'22750000'
p7781
tp7782
a(g5
S'22500000'
p7783
tp7784
aa(lp7785
(g136
S'166000000'
p7786
tp7787
a(g593
S'189000000'
p7788
tp7789
aa(lp7790
(g5
S'43500000'
p7791
tp7792
aa(lp7793
(g52
S'123750000'
p7794
tp7795
aa(lp7796
(g42
S'8000000'
p7797
tp7798
a(g42
S'8250000'
p7799
tp7800
a(g2
S'201500000'
p7801
tp7802
aa(lp7803
(g593
S'164250000'
p7804
tp7805
aa(lp7806
(g42
S'59000000'
p7807
tp7808
aa(lp7809
(g136
S'74750000'
p7810
tp7811
a(g136
S'74500000'
p7812
tp7813
a(g136
S'74250000'
p7814
tp7815
aa(lp7816
(S'11'
p7817
S'41750000'
p7818
tp7819
aa(lp7820
(g2
S'3750000'
p7821
tp7822
aa(lp7823
(g9
S'35000000'
p7824
tp7825
aa(lp7826
(S'12'
p7827
S'14000000'
p7828
tp7829
aa(lp7830
(S'20'
p7831
S'23000000'
p7832
tp7833
aa(lp7834
(S'21'
p7835
S'25750000'
p7836
tp7837
a(S'18'
p7838
S'2000000'
p7839
tp7840
a(S'21'
p7841
S'25250000'
p7842
tp7843
a(S'14'
p7844
S'26000000'
p7845
tp7846
aa(lp7847
(g42
S'147500000'
p7848
tp7849
aa(lp7850
(g42
S'13000000'
p7851
tp7852
a(g2
S'156500000'
p7853
tp7854
a(g2
S'156750000'
p7855
tp7856
aa(lp7857
(g74
S'113750000'
p7858
tp7859
aa(lp7860
(g52
S'127500000'
p7861
tp7862
aa(lp7863
(S'15'
p7864
S'58000000'
p7865
tp7866
a(S'15'
p7867
S'58250000'
p7868
tp7869
aa(lp7870
(g2
S'215000000'
p7871
tp7872
aa(lp7873
(g15
S'75750000'
p7874
tp7875
aa(lp7876
(S'10'
p7877
g588
tp7878
aa(lp7879
(g42
S'148750000'
p7880
tp7881
a(g15
S'122500000'
p7882
tp7883
aa(lp7884
(S'16'
p7885
S'61250000'
p7886
tp7887
aa(lp7888
(g15
S'10500000'
p7889
tp7890
aa(lp7891
(S'14'
p7892
S'44750000'
p7893
tp7894
aa(lp7895
(g5
S'52750000'
p7896
tp7897
aa(lp7898
(S'10'
p7899
S'133750000'
p7900
tp7901
a(g15
S'155000000'
p7902
tp7903
a(g2
S'241000000'
p7904
tp7905
aa(lp7906
(g593
S'186250000'
p7907
tp7908
aa(lp7909
(g42
S'188500000'
p7910
tp7911
aa(lp7912
(S'19'
p7913
S'31750000'
p7914
tp7915
aa(lp7916
(g5
S'92250000'
p7917
tp7918
a(g5
S'92000000'
p7919
tp7920
a(g5
S'92500000'
p7921
tp7922
aa(lp7923
(S'10'
p7924
S'102250000'
p7925
tp7926
a(g42
S'201000000'
p7927
tp7928
a(S'10'
p7929
S'102000000'
p7930
tp7931
aa(lp7932
(S'15'
p7933
S'95000000'
p7934
tp7935
aa(lp7936
(S'11'
p7937
S'74500000'
p7938
tp7939
a(S'14'
p7940
S'50500000'
p7941
tp7942
aa(lp7943
(S'14'
p7944
S'102500000'
p7945
tp7946
aa(lp7947
(g5
S'53000000'
p7948
tp7949
a(g5
S'53500000'
p7950
tp7951
aa(lp7952
(S'10'
p7953
S'51000000'
p7954
tp7955
aa(lp7956
(S'17'
p7957
S'48750000'
p7958
tp7959
a(S'12'
p7960
S'56250000'
p7961
tp7962
aa(lp7963
(S'21'
p7964
S'27000000'
p7965
tp7966
aa(lp7967
(g593
S'128500000'
p7968
tp7969
aa(lp7970
(g9
S'43500000'
p7971
tp7972
a(g593
S'35000000'
p7973
tp7974
aa(lp7975
(S'17'
p7976
S'7500000'
p7977
tp7978
aa(lp7979
(S'11'
p7980
S'113000000'
p7981
tp7982
aa(lp7983
(S'14'
p7984
S'48000000'
p7985
tp7986
aa(lp7987
(S'17'
p7988
S'74250000'
p7989
tp7990
a(S'22'
p7991
S'45500000'
p7992
tp7993
aa(lp7994
(g593
S'190000000'
p7995
tp7996
aa(lp7997
(g52
S'153500000'
p7998
tp7999
aa(lp8000
(g136
S'24500000'
p8001
tp8002
aa(lp8003
(S'18'
p8004
S'50250000'
p8005
tp8006
a(g136
S'94750000'
p8007
tp8008
aa(lp8009
(S'19'
p8010
S'46500000'
p8011
tp8012
a(S'15'
p8013
S'74000000'
p8014
tp8015
aa(lp8016
(g74
S'120250000'
p8017
tp8018
aa(lp8019
(g5
S'138750000'
p8020
tp8021
a(g42
S'9750000'
p8022
tp8023
aa(lp8024
(S'12'
p8025
S'13500000'
p8026
tp8027
aa(lp8028
(S'10'
p8029
S'75750000'
p8030
tp8031
aa(lp8032
(g42
S'53750000'
p8033
tp8034
aa(lp8035
(g593
S'132250000'
p8036
tp8037
a(g136
S'123500000'
p8038
tp8039
aa(lp8040
(g2
S'22500000'
p8041
tp8042
a(g2
S'22750000'
p8043
tp8044
aa(lp8045
(g15
S'155250000'
p8046
tp8047
aa(lp8048
(S'12'
p8049
S'61250000'
p8050
tp8051
a(S'12'
p8052
S'62250000'
p8053
tp8054
aa(lp8055
(g42
S'146250000'
p8056
tp8057
aa(lp8058
(S'16'
p8059
S'54750000'
p8060
tp8061
aa(lp8062
(g5
S'60250000'
p8063
tp8064
aa(lp8065
(g9
S'34750000'
p8066
tp8067
aa(lp8068
(S'10'
p8069
S'89000000'
p8070
tp8071
a(g593
S'137000000'
p8072
tp8073
aa(lp8074
(S'17'
p8075
S'50750000'
p8076
tp8077
aa(lp8078
(S'13'
p8079
S'42000000'
p8080
tp8081
a(S'15'
p8082
S'67000000'
p8083
tp8084
aa(lp8085
(g74
S'132500000'
p8086
tp8087
aa(lp8088
(g42
S'246750000'
p8089
tp8090
aa(lp8091
(g74
S'52000000'
p8092
tp8093
aa(lp8094
(S'22'
p8095
S'22250000'
p8096
tp8097
aa(lp8098
(g42
S'249000000'
p8099
tp8100
aa(lp8101
(g74
S'61750000'
p8102
tp8103
aa(lp8104
(S'11'
p8105
S'10750000'
p8106
tp8107
aa(lp8108
(S'14'
p8109
S'47250000'
p8110
tp8111
aa(lp8112
(S'17'
p8113
S'32500000'
p8114
tp8115
aa(lp8116
(S'16'
p8117
S'9250000'
p8118
tp8119
aa(lp8120
(S'12'
p8121
S'750000'
p8122
tp8123
a(S'15'
p8124
S'40250000'
p8125
tp8126
a(S'11'
p8127
S'73750000'
p8128
tp8129
aa(lp8130
(g2
S'236500000'
p8131
tp8132
a(g593
S'186000000'
p8133
tp8134
aa(lp8135
(S'20'
p8136
S'49500000'
p8137
tp8138
aa(lp8139
(g74
S'92250000'
p8140
tp8141
aa(lp8142
(g5
S'54250000'
p8143
tp8144
aa(lp8145
(g2
S'89500000'
p8146
tp8147
a(g9
S'39000000'
p8148
tp8149
aa(lp8150
(g52
S'192500000'
p8151
tp8152
a(g2
S'227500000'
p8153
tp8154
aa(lp8155
(S'13'
p8156
S'61250000'
p8157
tp8158
aa(lp8159
(S'19'
p8160
S'6250000'
p8161
tp8162
a(S'19'
p8163
S'5750000'
p8164
tp8165
aa(lp8166
(S'12'
p8167
S'67500000'
p8168
tp8169
aa(lp8170
(g15
S'76750000'
p8171
tp8172
a(g136
S'131250000'
p8173
tp8174
a(g593
S'125500000'
p8175
tp8176
a(g15
S'77000000'
p8177
tp8178
aa(lp8179
(g42
S'177250000'
p8180
tp8181
a(g42
S'177500000'
p8182
tp8183
aa(lp8184
(S'11'
p8185
S'30250000'
p8186
tp8187
aa(lp8188
(g2
S'223250000'
p8189
tp8190
a(g52
S'193250000'
p8191
tp8192
aa(lp8193
(g9
S'23500000'
p8194
tp8195
aa(lp8196
(g15
S'11500000'
p8197
tp8198
aa(lp8199
(S'14'
p8200
S'68000000'
p8201
tp8202
a(S'14'
p8203
S'67750000'
p8204
tp8205
aa(lp8206
(g593
S'98000000'
p8207
tp8208
aa(lp8209
(S'11'
p8210
S'84750000'
p8211
tp8212
aa(lp8213
(S'16'
p8214
S'21750000'
p8215
tp8216
aa(lp8217
(g15
S'49000000'
p8218
tp8219
a(S'16'
p8220
S'32750000'
p8221
tp8222
aa(lp8223
(S'12'
p8224
S'27000000'
p8225
tp8226
a(S'21'
p8227
S'38250000'
p8228
tp8229
aa(lp8230
(g42
S'54250000'
p8231
tp8232
aa(lp8233
(g52
S'123000000'
p8234
tp8235
aa(lp8236
(g42
S'193750000'
p8237
tp8238
aa(lp8239
(g593
S'8250000'
p8240
tp8241
aa(lp8242
(S'11'
p8243
S'98000000'
p8244
tp8245
aa(lp8246
(S'20'
p8247
S'8000000'
p8248
tp8249
a(S'20'
p8250
S'8250000'
p8251
tp8252
aa(lp8253
(g2
S'107750000'
p8254
tp8255
aa(lp8256
(g52
S'154500000'
p8257
tp8258
aa(lp8259
(g42
S'59250000'
p8260
tp8261
aa(lp8262
(S'22'
p8263
S'24500000'
p8264
tp8265
a(S'21'
p8266
S'40500000'
p8267
tp8268
aa(lp8269
(S'11'
p8270
S'24500000'
p8271
tp8272
aa(lp8273
(S'18'
p8274
S'51250000'
p8275
tp8276
a(g9
S'44000000'
p8277
tp8278
aa(lp8279
(S'11'
p8280
S'40250000'
p8281
tp8282
aa(lp8283
(g2
S'5250000'
p8284
tp8285
aa(lp8286
(S'19'
p8287
S'17000000'
p8288
tp8289
aa(lp8290
(S'14'
p8291
S'98000000'
p8292
tp8293
aa(lp8294
(g74
S'137750000'
p8295
tp8296
aa(lp8297
(g593
S'140000000'
p8298
tp8299
aa(lp8300
(g15
S'75000000'
p8301
tp8302
aa(lp8303
(g5
S'29250000'
p8304
tp8305
aa(lp8306
(S'18'
p8307
S'72250000'
p8308
tp8309
aa(lp8310
(g74
S'118500000'
p8311
tp8312
aa(lp8313
(g9
S'35750000'
p8314
tp8315
aa(lp8316
(S'12'
p8317
S'50750000'
p8318
tp8319
a(S'12'
p8320
S'51000000'
p8321
tp8322
aa(lp8323
(S'15'
p8324
S'77250000'
p8325
tp8326
a(S'15'
p8327
S'77500000'
p8328
tp8329
aa(lp8330
(S'17'
p8331
S'1250000'
p8332
tp8333
aa(lp8334
(S'10'
p8335
S'125750000'
p8336
tp8337
aa(lp8338
(g136
S'36000000'
p8339
tp8340
a(S'12'
p8341
S'49750000'
p8342
tp8343
aa(lp8344
(S'20'
p8345
S'16500000'
p8346
tp8347
aa(lp8348
(g5
S'115500000'
p8349
tp8350
aa(lp8351
(S'12'
p8352
S'11250000'
p8353
tp8354
aa(lp8355
(g74
S'60750000'
p8356
tp8357
aa(lp8358
(S'22'
p8359
S'22000000'
p8360
tp8361
aa(lp8362
(S'18'
p8363
S'58500000'
p8364
tp8365
a(S'18'
p8366
S'58250000'
p8367
tp8368
aa(lp8369
(S'16'
p8370
S'60750000'
p8371
tp8372
aa(lp8373
(S'19'
p8374
S'54250000'
p8375
tp8376
a(S'19'
p8377
S'54500000'
p8378
tp8379
aa(lp8380
(g42
S'1250000'
p8381
tp8382
a(S'12'
p8383
S'124750000'
p8384
tp8385
aa(lp8386
(g593
S'184500000'
p8387
tp8388
aa(lp8389
(g42
S'168750000'
p8390
tp8391
aa(lp8392
(S'16'
p8393
S'33000000'
p8394
tp8395
a(S'14'
p8396
S'48500000'
p8397
tp8398
aa(lp8399
(S'14'
p8400
S'88000000'
p8401
tp8402
aa(lp8403
(S'17'
p8404
S'62250000'
p8405
tp8406
a(S'15'
p8407
S'63750000'
p8408
tp8409
aa(lp8410
(g42
S'215750000'
p8411
tp8412
a(g42
S'216000000'
p8413
tp8414
aa(lp8415
(S'14'
p8416
S'97250000'
p8417
tp8418
aa(lp8419
(g5
S'19250000'
p8420
tp8421
aa(lp8422
(S'18'
p8423
S'27250000'
p8424
tp8425
aa(lp8426
(S'10'
p8427
S'113250000'
p8428
tp8429
aa(lp8430
(g74
S'120500000'
p8431
tp8432
aa(lp8433
(S'16'
p8434
S'8500000'
p8435
tp8436
aa(lp8437
(S'12'
p8438
S'12750000'
p8439
tp8440
aa(lp8441
(g42
S'82500000'
p8442
tp8443
aa(lp8444
(S'18'
p8445
S'47500000'
p8446
tp8447
aa(lp8448
(S'13'
p8449
S'52750000'
p8450
tp8451
aa(lp8452
(S'11'
p8453
S'69750000'
p8454
tp8455
aa(lp8456
(g2
S'29000000'
p8457
tp8458
aa(lp8459
(S'16'
p8460
S'62750000'
p8461
tp8462
aa(lp8463
(S'12'
p8464
S'42000000'
p8465
tp8466
aa(lp8467
(g136
S'99500000'
p8468
tp8469
aa(lp8470
(S'13'
p8471
S'39250000'
p8472
tp8473
aa(lp8474
(S'18'
p8475
S'31250000'
p8476
tp8477
aa(lp8478
(S'14'
p8479
S'100500000'
p8480
tp8481
a(S'14'
p8482
S'100250000'
p8483
tp8484
aa(lp8485
(S'19'
p8486
S'15000000'
p8487
tp8488
aa(lp8489
(g9
S'93250000'
p8490
tp8491
aa(lp8492
(g5
S'26500000'
p8493
tp8494
aa(lp8495
(S'19'
p8496
S'42000000'
p8497
tp8498
a(S'19'
p8499
S'42250000'
p8500
tp8501
aa(lp8502
(g74
S'85750000'
p8503
tp8504
aa(lp8505
(g42
S'232250000'
p8506
tp8507
aa(lp8508
(g136
S'78500000'
p8509
tp8510
aa(lp8511
(g593
S'168750000'
p8512
tp8513
aa(lp8514
(S'10'
p8515
S'2750000'
p8516
tp8517
a(g74
S'4750000'
p8518
tp8519
aa(lp8520
(g52
S'18250000'
p8521
tp8522
aa(lp8523
(g9
S'122500000'
p8524
tp8525
aa(lp8526
(g5
S'30000000'
p8527
tp8528
aa(lp8529
(g42
S'83750000'
p8530
tp8531
aa(lp8532
(g9
S'10000000'
p8533
tp8534
aa(lp8535
(g42
S'18000000'
p8536
tp8537
a(g42
S'18250000'
p8538
tp8539
aa(lp8540
(g15
S'148000000'
p8541
tp8542
aa(lp8543
(g9
S'9250000'
p8544
tp8545
aa(lp8546
(S'11'
p8547
S'102500000'
p8548
tp8549
a(S'11'
p8550
S'102250000'
p8551
tp8552
aa(lp8553
(S'21'
p8554
S'43750000'
p8555
tp8556
a(g593
S'6000000'
p8557
tp8558
a(g593
S'6250000'
p8559
tp8560
aa(lp8561
(S'18'
p8562
S'48000000'
p8563
tp8564
aa(lp8565
(g74
S'25500000'
p8566
tp8567
aa(lp8568
(g15
S'115500000'
p8569
tp8570
aa(lp8571
(g42
S'20750000'
p8572
tp8573
a(S'12'
p8574
S'122500000'
p8575
tp8576
aa(lp8577
(S'11'
p8578
S'93000000'
p8579
tp8580
aa(lp8581
(S'12'
p8582
S'26250000'
p8583
tp8584
aa(lp8585
(g42
S'55000000'
p8586
tp8587
aa(lp8588
(S'16'
p8589
S'61750000'
p8590
tp8591
aa(lp8592
(S'12'
p8593
S'67000000'
p8594
tp8595
aa(lp8596
(g42
S'14250000'
p8597
tp8598
aa(lp8599
(g593
S'2750000'
p8600
tp8601
aa(lp8602
(S'16'
p8603
S'66750000'
p8604
tp8605
aa(lp8606
(g136
S'161250000'
p8607
tp8608
aa(lp8609
(g593
S'27500000'
p8610
tp8611
aa(lp8612
(g2
S'234250000'
p8613
tp8614
aa(lp8615
(g42
S'25750000'
p8616
tp8617
a(g74
S'124000000'
p8618
tp8619
a(S'15'
p8620
S'70750000'
p8621
tp8622
a(S'11'
p8623
S'74000000'
p8624
tp8625
aa(lp8626
(g74
S'101000000'
p8627
tp8628
aa(lp8629
(g593
S'32250000'
p8630
tp8631
aa(lp8632
(g9
S'68250000'
p8633
tp8634
a(g42
S'143000000'
p8635
tp8636
aa(lp8637
(g52
S'139750000'
p8638
tp8639
aa(lp8640
(S'11'
p8641
S'89750000'
p8642
tp8643
aa(lp8644
(g15
S'46000000'
p8645
tp8646
a(g15
S'47000000'
p8647
tp8648
aa(lp8649
(S'21'
p8650
S'22500000'
p8651
tp8652
a(S'20'
p8653
S'14250000'
p8654
tp8655
aa(lp8656
(g52
S'194500000'
p8657
tp8658
aa(lp8659
(g2
S'4000000'
p8660
tp8661
aa(lp8662
(g9
S'134750000'
p8663
tp8664
a(S'21'
p8665
S'38000000'
p8666
tp8667
a(S'22'
p8668
S'29250000'
p8669
tp8670
a(S'12'
p8671
S'2000000'
p8672
tp8673
aa(lp8674
(g5
S'111000000'
p8675
tp8676
a(g5
S'110750000'
p8677
tp8678
aa(lp8679
(g42
S'227500000'
p8680
tp8681
aa(lp8682
(g593
S'6500000'
p8683
tp8684
aa(lp8685
(g2
S'141250000'
p8686
tp8687
aa(lp8688
(g136
S'34500000'
p8689
tp8690
aa(lp8691
(S'11'
p8692
S'39000000'
p8693
tp8694
aa(lp8695
(S'18'
p8696
S'50750000'
p8697
tp8698
aa(lp8699
(g5
S'14500000'
p8700
tp8701
aa(lp8702
(g9
S'36000000'
p8703
tp8704
aa(lp8705
(g52
S'143500000'
p8706
tp8707
aa(lp8708
(S'20'
p8709
S'50000000'
p8710
tp8711
aa(lp8712
(S'17'
p8713
S'2500000'
p8714
tp8715
aa(lp8716
(g2
S'250000'
p8717
tp8718
aa(lp8719
(g2
S'80500000'
p8720
tp8721
aa(lp8722
(g9
S'122250000'
p8723
tp8724
aa(lp8725
(S'12'
p8726
S'51250000'
p8727
tp8728
aa(lp8729
(S'17'
p8730
S'35250000'
p8731
tp8732
aa(lp8733
(S'13'
p8734
S'69500000'
p8735
tp8736
aa(lp8737
(S'20'
p8738
S'13750000'
p8739
tp8740
a(S'20'
p8741
S'13000000'
p8742
tp8743
aa(lp8744
(S'17'
p8745
S'16000000'
p8746
tp8747
a(S'17'
p8748
S'15750000'
p8749
tp8750
aa(lp8751
(g2
S'130000000'
p8752
tp8753
aa(lp8754
(g2
S'186000000'
p8755
tp8756
aa(lp8757
(g15
S'48750000'
p8758
tp8759
aa(lp8760
(g5
S'101000000'
p8761
tp8762
aa(lp8763
(S'12'
p8764
S'25750000'
p8765
tp8766
a(S'12'
p8767
S'26000000'
p8768
tp8769
a(S'12'
p8770
S'25500000'
p8771
tp8772
aa(lp8773
(g42
S'9500000'
p8774
tp8775
aa(lp8776
(S'20'
p8777
S'18250000'
p8778
tp8779
aa(lp8780
(S'11'
p8781
S'74250000'
p8782
tp8783
aa(lp8784
(g593
S'8000000'
p8785
tp8786
aa(lp8787
(g593
S'185250000'
p8788
tp8789
a(g2
S'213750000'
p8790
tp8791
a(g2
S'214000000'
p8792
tp8793
a(g2
S'213500000'
p8794
tp8795
aa(lp8796
(g2
S'211500000'
p8797
tp8798
a(g593
S'179250000'
p8799
tp8800
aa(lp8801
(S'22'
p8802
S'25000000'
p8803
tp8804
aa(lp8805
(g2
S'76750000'
p8806
tp8807
aa(lp8808
(g2
S'216000000'
p8809
tp8810
aa(lp8811
(g136
S'72500000'
p8812
tp8813
aa(lp8814
(g52
S'61000000'
p8815
tp8816
aa(lp8817
(S'12'
p8818
g588
tp8819
aa(lp8820
(g593
S'31500000'
p8821
tp8822
aa(lp8823
(S'18'
p8824
S'49000000'
p8825
tp8826
aa(lp8827
(S'21'
p8828
S'37750000'
p8829
tp8830
aa(lp8831
(g2
S'79750000'
p8832
tp8833
aa(lp8834
(S'10'
p8835
S'124250000'
p8836
tp8837
aa(lp8838
(S'19'
p8839
S'47250000'
p8840
tp8841
aa(lp8842
(g136
S'160250000'
p8843
tp8844
aa(lp8845
(g2
S'89250000'
p8846
tp8847
aa(lp8848
(g5
S'167750000'
p8849
tp8850
a(g2
S'236750000'
p8851
tp8852
aa(lp8853
(S'17'
p8854
S'51500000'
p8855
tp8856
aa(lp8857
(g593
S'35250000'
p8858
tp8859
aa(lp8860
(S'11'
p8861
S'43000000'
p8862
tp8863
aa(lp8864
(g15
S'112250000'
p8865
tp8866
aa(lp8867
(S'12'
p8868
S'104250000'
p8869
tp8870
aa(lp8871
(g74
S'109750000'
p8872
tp8873
aa(lp8874
(g136
S'102500000'
p8875
tp8876
aa(lp8877
(g593
S'64750000'
p8878
tp8879
aa(lp8880
(S'14'
p8881
S'47500000'
p8882
tp8883
aa(lp8884
(S'15'
p8885
S'49250000'
p8886
tp8887
aa(lp8888
(S'13'
p8889
S'71000000'
p8890
tp8891
aa(lp8892
(S'11'
p8893
S'49250000'
p8894
tp8895
aa(lp8896
(g2
S'153750000'
p8897
tp8898
aa(lp8899
(g42
S'75750000'
p8900
tp8901
aa(lp8902
(S'20'
p8903
S'44500000'
p8904
tp8905
a(S'20'
p8906
S'44750000'
p8907
tp8908
aa(lp8909
(S'11'
p8910
S'39750000'
p8911
tp8912
aa(lp8913
(g42
S'229250000'
p8914
tp8915
aa(lp8916
(g136
S'97500000'
p8917
tp8918
aa(lp8919
(S'13'
p8920
S'32000000'
p8921
tp8922
aa(lp8923
(g9
S'103500000'
p8924
tp8925
aa(lp8926
(S'16'
p8927
S'5000000'
p8928
tp8929
aa(lp8930
(g42
S'15000000'
p8931
tp8932
aa(lp8933
(g74
S'111750000'
p8934
tp8935
aa(lp8936
(S'20'
p8937
S'12750000'
p8938
tp8939
aa(lp8940
(S'11'
p8941
S'132750000'
p8942
tp8943
aa(lp8944
(S'16'
p8945
S'69750000'
p8946
tp8947
aa(lp8948
(g15
S'129000000'
p8949
tp8950
aa(lp8951
(S'12'
p8952
S'40750000'
p8953
tp8954
aa(lp8955
(g136
S'152750000'
p8956
tp8957
a(g136
S'152500000'
p8958
tp8959
aa(lp8960
(g42
S'54500000'
p8961
tp8962
aa(lp8963
(g593
S'96000000'
p8964
tp8965
aa(lp8966
(S'22'
p8967
S'23500000'
p8968
tp8969
a(S'22'
p8970
S'23750000'
p8971
tp8972
aa(lp8973
(S'13'
p8974
S'45000000'
p8975
tp8976
aa(lp8977
(g2
S'50250000'
p8978
tp8979
aa(lp8980
(g9
S'24500000'
p8981
tp8982
aa(lp8983
(g42
S'17750000'
p8984
tp8985
aa(lp8986
(S'10'
p8987
S'84500000'
p8988
tp8989
a(S'10'
p8990
S'84250000'
p8991
tp8992
aa(lp8993
(S'17'
p8994
S'32750000'
p8995
tp8996
a(S'17'
p8997
S'33000000'
p8998
tp8999
aa(lp9000
(g593
S'65000000'
p9001
tp9002
a(g9
S'69000000'
p9003
tp9004
aa(lp9005
(g15
S'150000000'
p9006
tp9007
aa(lp9008
(S'10'
p9009
S'104250000'
p9010
tp9011
aa(lp9012
(g42
S'11250000'
p9013
tp9014
a(g42
S'11500000'
p9015
tp9016
aa(lp9017
(g5
S'23000000'
p9018
tp9019
aa(lp9020
(S'12'
p9021
S'103750000'
p9022
tp9023
aa(lp9024
(g52
S'97250000'
p9025
tp9026
a(g52
S'97750000'
p9027
tp9028
aa(lp9029
(g593
S'80500000'
p9030
tp9031
aa(lp9032
(g136
S'52250000'
p9033
tp9034
aa(lp9035
(g15
S'45500000'
p9036
tp9037
aa(lp9038
(g136
S'89000000'
p9039
tp9040
a(g136
S'88750000'
p9041
tp9042
aa(lp9043
(S'13'
p9044
S'29750000'
p9045
tp9046
a(S'13'
p9047
S'29500000'
p9048
tp9049
aa(lp9050
(S'16'
p9051
S'63000000'
p9052
tp9053
aa(lp9054
(g5
S'54500000'
p9055
tp9056
aa(lp9057
(S'12'
p9058
S'28250000'
p9059
tp9060
aa(lp9061
(g52
S'750000'
p9062
tp9063
aa(lp9064
(g42
S'76250000'
p9065
tp9066
aa(lp9067
(g136
S'2750000'
p9068
tp9069
aa(lp9070
(g52
S'46250000'
p9071
tp9072
aa(lp9073
(g42
S'92500000'
p9074
tp9075
aa(lp9076
(S'13'
p9077
S'43000000'
p9078
tp9079
aa(lp9080
(S'20'
p9081
S'47250000'
p9082
tp9083
a(S'22'
p9084
S'44500000'
p9085
tp9086
aa(lp9087
(S'11'
p9088
S'69250000'
p9089
tp9090
aa(lp9091
(S'17'
p9092
S'50500000'
p9093
tp9094
aa(lp9095
(S'13'
p9096
S'70750000'
p9097
tp9098
aa(lp9099
(g2
S'1750000'
p9100
tp9101
aa(lp9102
(g52
S'132500000'
p9103
tp9104
aa(lp9105
(g2
S'66000000'
p9106
tp9107
aa(lp9108
(S'14'
p9109
S'30500000'
p9110
tp9111
aa(lp9112
(g52
S'187250000'
p9113
tp9114
aa(lp9115
(g2
S'196250000'
p9116
tp9117
aa(lp9118
(g42
S'248750000'
p9119
tp9120
aa(lp9121
(g2
S'219500000'
p9122
tp9123
a(g15
S'127750000'
p9124
tp9125
aa(lp9126
(g9
S'103250000'
p9127
tp9128
aa(lp9129
(g15
S'142500000'
p9130
tp9131
a(g15
S'142250000'
p9132
tp9133
aa(lp9134
(S'13'
p9135
S'30500000'
p9136
tp9137
aa(lp9138
(S'20'
p9139
S'32750000'
p9140
tp9141
aa(lp9142
(S'11'
p9143
S'88750000'
p9144
tp9145
a(g42
S'148000000'
p9146
tp9147
aa(lp9148
(S'22'
p9149
S'34250000'
p9150
tp9151
aa(lp9152
(g593
S'14750000'
p9153
tp9154
aa(lp9155
(S'14'
p9156
S'25500000'
p9157
tp9158
aa(lp9159
(g52
S'191000000'
p9160
tp9161
aa(lp9162
(g2
S'78500000'
p9163
tp9164
aa(lp9165
(g9
S'24250000'
p9166
tp9167
aa(lp9168
(g74
S'110750000'
p9169
tp9170
aa(lp9171
(S'17'
p9172
S'11750000'
p9173
tp9174
aa(lp9175
(g136
S'166750000'
p9176
tp9177
a(g42
S'14000000'
p9178
tp9179
aa(lp9180
(g9
S'87000000'
p9181
tp9182
aa(lp9183
(g15
S'130000000'
p9184
tp9185
aa(lp9186
(g136
S'36250000'
p9187
tp9188
aa(lp9189
(g136
S'119750000'
p9190
tp9191
aa(lp9192
(g52
S'21250000'
p9193
tp9194
aa(lp9195
(S'22'
p9196
S'21500000'
p9197
tp9198
aa(lp9199
(S'13'
p9200
S'82000000'
p9201
tp9202
aa(lp9203
(S'11'
p9204
S'44250000'
p9205
tp9206
aa(lp9207
(g2
S'193250000'
p9208
tp9209
aa(lp9210
(S'13'
p9211
S'81750000'
p9212
tp9213
aa(lp9214
(g2
S'202750000'
p9215
tp9216
aa(lp9217
(S'10'
p9218
S'103250000'
p9219
tp9220
a(g15
S'128750000'
p9221
tp9222
aa(lp9223
(g136
S'126500000'
p9224
tp9225
aa(lp9226
(g5
S'148000000'
p9227
tp9228
aa(lp9229
(g593
S'97500000'
p9230
tp9231
a(g42
S'143250000'
p9232
tp9233
aa(lp9234
(g2
S'228250000'
p9235
tp9236
aa(lp9237
(g42
S'163750000'
p9238
tp9239
aa(lp9240
(g136
S'88000000'
p9241
tp9242
aa(lp9243
(S'13'
p9244
S'42750000'
p9245
tp9246
aa(lp9247
(g5
S'23500000'
p9248
tp9249
aa(lp9250
(g52
S'1750000'
p9251
tp9252
aa(lp9253
(S'13'
p9254
S'113500000'
p9255
tp9256
aa(lp9257
(S'11'
p9258
S'63750000'
p9259
tp9260
a(S'16'
p9261
S'67750000'
p9262
tp9263
aa(lp9264
(g2
S'13750000'
p9265
tp9266
a(g15
S'74500000'
p9267
tp9268
aa(lp9269
(g42
S'81000000'
p9270
tp9271
aa(lp9272
(g42
S'189250000'
p9273
tp9274
aa(lp9275
(g136
S'121500000'
p9276
tp9277
aa(lp9278
(g9
S'32750000'
p9279
tp9280
aa(lp9281
(S'12'
p9282
S'53750000'
p9283
tp9284
a(S'20'
p9285
S'34250000'
p9286
tp9287
aa(lp9288
(g52
S'47250000'
p9289
tp9290
a(S'12'
p9291
S'122250000'
p9292
tp9293
aa(lp9294
(g593
S'95500000'
p9295
tp9296
aa(lp9297
(S'15'
p9298
S'38250000'
p9299
tp9300
aa(lp9301
(S'19'
p9302
S'54000000'
p9303
tp9304
aa(lp9305
(S'16'
p9306
S'13000000'
p9307
tp9308
aa(lp9309
(S'10'
p9310
S'25500000'
p9311
tp9312
aa(lp9313
(g42
S'101000000'
p9314
tp9315
aa(lp9316
(S'17'
p9317
S'72750000'
p9318
tp9319
aa(lp9320
(g42
S'94250000'
p9321
tp9322
aa(lp9323
(S'11'
p9324
S'3500000'
p9325
tp9326
aa(lp9327
(g2
S'81000000'
p9328
tp9329
aa(lp9330
(g136
S'119500000'
p9331
tp9332
aa(lp9333
(S'21'
p9334
S'28000000'
p9335
tp9336
aa(lp9337
(S'12'
p9338
S'57500000'
p9339
tp9340
aa(lp9341
(S'20'
p9342
S'14500000'
p9343
tp9344
aa(lp9345
(S'11'
p9346
S'42000000'
p9347
tp9348
aa(lp9349
(g2
S'234500000'
p9350
tp9351
aa(lp9352
(g5
S'136250000'
p9353
tp9354
aa(lp9355
(g52
S'9250000'
p9356
tp9357
aa(lp9358
(g42
S'179500000'
p9359
tp9360
aa(lp9361
(g2
S'189250000'
p9362
tp9363
aa(lp9364
(S'13'
p9365
S'53750000'
p9366
tp9367
aa(lp9368
(g136
S'42500000'
p9369
tp9370
aa(lp9371
(g9
S'25250000'
p9372
tp9373
aa(lp9374
(S'14'
p9375
S'58000000'
p9376
tp9377
a(S'14'
p9378
S'57750000'
p9379
tp9380
aa(lp9381
(g2
S'230750000'
p9382
tp9383
aa(lp9384
(S'22'
p9385
S'22500000'
p9386
tp9387
aa(lp9388
(g2
S'238750000'
p9389
tp9390
aa(lp9391
(S'13'
p9392
S'44250000'
p9393
tp9394
a(S'13'
p9395
S'44750000'
p9396
tp9397
aa(lp9398
(S'18'
p9399
S'28250000'
p9400
tp9401
aa(lp9402
(S'16'
p9403
S'62500000'
p9404
tp9405
aa(lp9406
(S'14'
p9407
S'75500000'
p9408
tp9409
aa(lp9410
(g74
S'142250000'
p9411
tp9412
a(S'10'
p9413
S'134250000'
p9414
tp9415
a(S'10'
p9416
S'134000000'
p9417
tp9418
aa(lp9419
(S'17'
p9420
S'45500000'
p9421
tp9422
a(S'16'
p9423
S'70000000'
p9424
tp9425
aa(lp9426
(g2
S'240250000'
p9427
tp9428
aa(lp9429
(g74
S'52500000'
p9430
tp9431
aa(lp9432
(g136
S'108000000'
p9433
tp9434
aa(lp9435
(S'14'
p9436
S'53000000'
p9437
tp9438
aa(lp9439
(g42
S'238000000'
p9440
tp9441
aa(lp9442
(S'13'
p9443
S'85500000'
p9444
tp9445
aa(lp9446
(S'12'
p9447
S'8000000'
p9448
tp9449
aa(lp9450
(g74
S'141500000'
p9451
tp9452
aa(lp9453
(g2
S'170000000'
p9454
tp9455
aa(lp9456
(g9
S'140750000'
p9457
tp9458
aa(lp9459
(S'17'
p9460
S'16750000'
p9461
tp9462
aa(lp9463
(g136
S'50250000'
p9464
tp9465
aa(lp9466
(S'15'
p9467
S'38500000'
p9468
tp9469
aa(lp9470
(g52
S'2750000'
p9471
tp9472
aa(lp9473
(g136
S'67750000'
p9474
tp9475
aa(lp9476
(S'20'
p9477
S'56750000'
p9478
tp9479
aa(lp9480
(g15
S'101000000'
p9481
tp9482
aa(lp9483
(S'10'
p9484
S'25250000'
p9485
tp9486
aa(lp9487
(g42
S'234250000'
p9488
tp9489
aa(lp9490
(g42
S'233250000'
p9491
tp9492
aa(lp9493
(g9
S'33750000'
p9494
tp9495
aa(lp9496
(g52
S'48250000'
p9497
tp9498
aa(lp9499
(S'18'
p9500
S'43500000'
p9501
tp9502
aa(lp9503
(S'10'
p9504
S'107750000'
p9505
tp9506
aa(lp9507
(S'17'
p9508
S'76500000'
p9509
tp9510
aa(lp9511
(S'15'
p9512
S'75500000'
p9513
tp9514
a(S'11'
p9515
g588
tp9516
aa(lp9517
(g52
S'79750000'
p9518
tp9519
a(g52
S'80000000'
p9520
tp9521
aa(lp9522
(g74
S'6750000'
p9523
tp9524
aa(lp9525
(g593
S'141000000'
p9526
tp9527
aa(lp9528
(g2
S'191750000'
p9529
tp9530
aa(lp9531
(S'16'
p9532
S'22750000'
p9533
tp9534
aa(lp9535
(g5
S'28250000'
p9536
tp9537
aa(lp9538
(g42
S'239250000'
p9539
tp9540
a(g136
S'163000000'
p9541
tp9542
aa(lp9543
(g136
S'43500000'
p9544
tp9545
aa(lp9546
(g15
S'82750000'
p9547
tp9548
a(g15
S'83000000'
p9549
tp9550
aa(lp9551
(g52
S'125250000'
p9552
tp9553
aa(lp9554
(S'17'
p9555
S'18750000'
p9556
tp9557
aa(lp9558
(S'11'
p9559
S'132250000'
p9560
tp9561
a(S'11'
p9562
S'132500000'
p9563
tp9564
aa(lp9565
(S'18'
p9566
S'50000000'
p9567
tp9568
aa(lp9569
(S'22'
p9570
S'51000000'
p9571
tp9572
aa(lp9573
(g136
S'133000000'
p9574
tp9575
aa(lp9576
(S'11'
p9577
S'27000000'
p9578
tp9579
a(S'11'
p9580
S'26750000'
p9581
tp9582
aa(lp9583
(g136
S'85000000'
p9584
tp9585
aa(lp9586
(g593
S'178750000'
p9587
tp9588
a(g2
S'214250000'
p9589
tp9590
a(g2
S'214500000'
p9591
tp9592
aa(lp9593
(S'11'
p9594
S'42750000'
p9595
tp9596
aa(lp9597
(S'21'
p9598
S'39500000'
p9599
tp9600
aa(lp9601
(g74
S'78500000'
p9602
tp9603
a(g74
S'78750000'
p9604
tp9605
aa(lp9606
(g42
S'16250000'
p9607
tp9608
aa(lp9609
(S'11'
p9610
S'81500000'
p9611
tp9612
aa(lp9613
(S'18'
p9614
S'12750000'
p9615
tp9616
aa(lp9617
(S'13'
p9618
S'87000000'
p9619
tp9620
aa(lp9621
(g52
S'1000000'
p9622
tp9623
aa(lp9624
(g5
S'43000000'
p9625
tp9626
aa(lp9627
(g42
S'27750000'
p9628
tp9629
a(g52
S'46750000'
p9630
tp9631
aa(lp9632
(S'20'
p9633
S'20250000'
p9634
tp9635
aa(lp9636
(g52
S'169750000'
p9637
tp9638
aa(lp9639
(g15
S'76000000'
p9640
tp9641
aa(lp9642
(g52
S'160500000'
p9643
tp9644
aa(lp9645
(S'17'
p9646
S'12000000'
p9647
tp9648
aa(lp9649
(g74
S'89500000'
p9650
tp9651
aa(lp9652
(g2
S'166000000'
p9653
tp9654
aa(lp9655
(S'13'
p9656
S'69000000'
p9657
tp9658
aa(lp9659
(S'22'
p9660
S'20500000'
p9661
tp9662
aa(lp9663
(S'17'
p9664
S'2000000'
p9665
tp9666
aa(lp9667
(S'16'
p9668
S'86250000'
p9669
tp9670
a(S'12'
p9671
S'2250000'
p9672
tp9673
aa(lp9674
(g5
S'117750000'
p9675
tp9676
aa(lp9677
(S'18'
p9678
S'53000000'
p9679
tp9680
a(S'18'
p9681
S'52750000'
p9682
tp9683
aa(lp9684
(g52
S'40750000'
p9685
tp9686
aa(lp9687
(g593
S'3750000'
p9688
tp9689
aa(lp9690
(g2
S'24750000'
p9691
tp9692
aa(lp9693
(S'12'
p9694
S'123000000'
p9695
tp9696
aa(lp9697
(S'17'
p9698
S'35000000'
p9699
tp9700
aa(lp9701
(g136
S'124500000'
p9702
tp9703
aa(lp9704
(S'16'
p9705
S'12500000'
p9706
tp9707
aa(lp9708
(g15
S'129750000'
p9709
tp9710
aa(lp9711
(g5
S'90000000'
p9712
tp9713
aa(lp9714
(g15
S'120500000'
p9715
tp9716
aa(lp9717
(g5
S'29000000'
p9718
tp9719
aa(lp9720
(S'15'
p9721
S'23500000'
p9722
tp9723
aa(lp9724
(S'22'
p9725
S'24750000'
p9726
tp9727
aa(lp9728
(g2
S'50500000'
p9729
tp9730
aa(lp9731
(g52
S'195750000'
p9732
tp9733
aa(lp9734
(S'20'
p9735
S'11750000'
p9736
tp9737
aa(lp9738
(g2
S'139750000'
p9739
tp9740
aa(lp9741
(g15
S'102000000'
p9742
tp9743
a(S'12'
p9744
S'121750000'
p9745
tp9746
aa(lp9747
(g5
S'144250000'
p9748
tp9749
aa(lp9750
(S'10'
p9751
S'56250000'
p9752
tp9753
aa(lp9754
(S'12'
p9755
S'17000000'
p9756
tp9757
aa(lp9758
(S'20'
p9759
S'15000000'
p9760
tp9761
aa(lp9762
(S'16'
p9763
S'18000000'
p9764
tp9765
aa(lp9766
(g52
S'49250000'
p9767
tp9768
aa(lp9769
(g74
S'115250000'
p9770
tp9771
aa(lp9772
(g593
S'174500000'
p9773
tp9774
aa(lp9775
(g593
S'128750000'
p9776
tp9777
aa(lp9778
(S'22'
p9779
S'27000000'
p9780
tp9781
aa(lp9782
(g52
S'132750000'
p9783
tp9784
aa(lp9785
(S'10'
p9786
S'75250000'
p9787
tp9788
a(S'15'
p9789
S'43250000'
p9790
tp9791
aa(lp9792
(g74
S'86500000'
p9793
tp9794
aa(lp9795
(S'10'
p9796
S'24000000'
p9797
tp9798
aa(lp9799
(g52
S'78000000'
p9800
tp9801
aa(lp9802
(g136
S'40750000'
p9803
tp9804
aa(lp9805
(S'18'
p9806
S'51000000'
p9807
tp9808
aa(lp9809
(S'16'
p9810
S'69250000'
p9811
tp9812
a(S'16'
p9813
S'69500000'
p9814
tp9815
aa(lp9816
(g52
S'134750000'
p9817
tp9818
aa(lp9819
(S'10'
p9820
S'29750000'
p9821
tp9822
aa(lp9823
(g136
S'55000000'
p9824
tp9825
aa(lp9826
(S'12'
p9827
S'107250000'
p9828
tp9829
aa(lp9830
(g42
S'70000000'
p9831
tp9832
aa(lp9833
(S'16'
p9834
S'28750000'
p9835
tp9836
a(S'19'
p9837
S'11250000'
p9838
tp9839
aa(lp9840
(S'12'
p9841
S'17750000'
p9842
tp9843
aa(lp9844
(g52
S'75250000'
p9845
tp9846
aa(lp9847
(g42
S'160000000'
p9848
tp9849
aa(lp9850
(g2
S'123250000'
p9851
tp9852
aa(lp9853
(S'14'
p9854
S'47750000'
p9855
tp9856
aa(lp9857
(g52
S'2000000'
p9858
tp9859
aa(lp9860
(g42
S'200750000'
p9861
tp9862
aa(lp9863
(S'18'
p9864
S'48750000'
p9865
tp9866
aa(lp9867
(g5
S'60500000'
p9868
tp9869
aa(lp9870
(S'19'
p9871
S'48000000'
p9872
tp9873
aa(lp9874
(S'10'
p9875
S'125500000'
p9876
tp9877
aa(lp9878
(g5
S'115250000'
p9879
tp9880
aa(lp9881
(g74
S'88500000'
p9882
tp9883
aa(lp9884
(S'14'
p9885
S'73500000'
p9886
tp9887
aa(lp9888
(S'17'
p9889
S'37000000'
p9890
tp9891
aa(lp9892
(g42
S'11750000'
p9893
tp9894
aa(lp9895
(g2
S'238250000'
p9896
tp9897
aa(lp9898
(S'16'
p9899
S'55250000'
p9900
tp9901
aa(lp9902
(g5
S'18750000'
p9903
tp9904
aa(lp9905
(g2
S'100750000'
p9906
tp9907
aa(lp9908
(S'20'
p9909
S'58500000'
p9910
tp9911
aa(lp9912
(g15
S'35250000'
p9913
tp9914
aa(lp9915
(g42
S'12000000'
p9916
tp9917
aa(lp9918
(S'17'
p9919
S'38750000'
p9920
tp9921
aa(lp9922
(S'16'
p9923
S'30750000'
p9924
tp9925
a(S'19'
p9926
S'17250000'
p9927
tp9928
a(S'16'
p9929
S'31000000'
p9930
tp9931
aa(lp9932
(g74
S'111500000'
p9933
tp9934
aa(lp9935
(g136
S'67500000'
p9936
tp9937
aa(lp9938
(S'16'
p9939
S'13500000'
p9940
tp9941
aa(lp9942
(S'14'
p9943
S'68500000'
p9944
tp9945
aa(lp9946
(S'12'
p9947
S'43750000'
p9948
tp9949
aa(lp9950
(g42
S'247500000'
p9951
tp9952
aa(lp9953
(g74
S'63250000'
p9954
tp9955
aa(lp9956
(g136
S'104250000'
p9957
tp9958
aa(lp9959
(g2
S'49250000'
p9960
tp9961
aa(lp9962
(g136
S'29000000'
p9963
tp9964
aa(lp9965
(g593
S'75250000'
p9966
tp9967
aa(lp9968
(g5
S'122500000'
p9969
tp9970
aa(lp9971
(g42
S'17000000'
p9972
tp9973
aa(lp9974
(g2
S'186750000'
p9975
tp9976
aa(lp9977
(g52
S'123500000'
p9978
tp9979
aa(lp9980
(S'10'
p9981
S'55250000'
p9982
tp9983
aa(lp9984
(g593
S'136750000'
p9985
tp9986
aa(lp9987
(S'11'
p9988
S'41500000'
p9989
tp9990
aa(lp9991
(g2
S'203000000'
p9992
tp9993
aa(lp9994
(S'12'
p9995
S'70750000'
p9996
tp9997
aa(lp9998
(g42
S'184500000'
p9999
tp10000
aa(lp10001
(g2
S'153250000'
p10002
tp10003
aa(lp10004
(g5
S'176750000'
p10005
tp10006
aa(lp10007
(g52
S'81750000'
p10008
tp10009
aa(lp10010
(g74
S'112250000'
p10011
tp10012
aa(lp10013
(g5
S'26250000'
p10014
tp10015
aa(lp10016
(g136
S'99250000'
p10017
tp10018
aa(lp10019
(S'17'
p10020
S'36000000'
p10021
tp10022
aa(lp10023
(g74
S'113500000'
p10024
tp10025
aa(lp10026
(g52
S'127250000'
p10027
tp10028
aa(lp10029
(g74
S'137250000'
p10030
tp10031
aa(lp10032
(g2
S'199250000'
p10033
tp10034
aa(lp10035
(g5
S'29750000'
p10036
tp10037
aa(lp10038
(S'18'
p10039
S'41000000'
p10040
tp10041
aa(lp10042
(g74
S'118000000'
p10043
tp10044
aa(lp10045
(S'22'
p10046
S'21750000'
p10047
tp10048
aa(lp10049
(S'13'
p10050
S'71750000'
p10051
tp10052
aa(lp10053
(S'16'
p10054
S'61000000'
p10055
tp10056
aa(lp10057
(g15
S'138250000'
p10058
tp10059
aa(lp10060
(S'17'
p10061
S'36250000'
p10062
tp10063
aa(lp10064
(S'20'
p10065
S'48000000'
p10066
tp10067
aa(lp10068
(g42
S'94500000'
p10069
tp10070
aa(lp10071
(g2
S'138250000'
p10072
tp10073
aa(lp10074
(g15
S'96500000'
p10075
tp10076
aa(lp10077
(S'12'
p10078
S'9500000'
p10079
tp10080
aa(lp10081
(g52
S'3000000'
p10082
tp10083
aa(lp10084
(g593
S'128250000'
p10085
tp10086
aa(lp10087
(S'12'
p10088
S'57250000'
p10089
tp10090
aa(lp10091
(g42
S'248000000'
p10092
tp10093
aa(lp10094
(S'18'
p10095
S'12500000'
p10096
tp10097
aa(lp10098
(S'15'
p10099
S'98750000'
p10100
tp10101
aa(lp10102
(g42
S'53500000'
p10103
tp10104
aa(lp10105
(g42
S'83250000'
p10106
tp10107
aa(lp10108
(g52
S'63500000'
p10109
tp10110
a(g52
S'63250000'
p10111
tp10112
aa(lp10113
(g15
S'54750000'
p10114
tp10115
aa(lp10116
(S'14'
p10117
S'88500000'
p10118
tp10119
a(S'14'
p10120
S'88250000'
p10121
tp10122
aa(lp10123
(g5
S'115750000'
p10124
tp10125
aa(lp10126
(g136
S'161000000'
p10127
tp10128
a(g42
S'239500000'
p10129
tp10130
aa(lp10131
(g5
S'165250000'
p10132
tp10133
aa(lp10134
(g136
S'66500000'
p10135
tp10136
aa(lp10137
(S'18'
p10138
S'45000000'
p10139
tp10140
aa(lp10141
(g136
S'28000000'
p10142
tp10143
aa(lp10144
(g9
S'26250000'
p10145
tp10146
aa(lp10147
(g52
S'197750000'
p10148
tp10149
aa(lp10150
(S'20'
p10151
S'11500000'
p10152
tp10153
aa(lp10154
(g136
S'136750000'
p10155
tp10156
aa(lp10157
(g2
S'185750000'
p10158
tp10159
aa(lp10160
(S'16'
p10161
S'68750000'
p10162
tp10163
aa(lp10164
(g74
S'61500000'
p10165
tp10166
aa(lp10167
(S'11'
p10168
S'26500000'
p10169
tp10170
aa(lp10171
(g5
S'24500000'
p10172
tp10173
aa(lp10174
(S'12'
p10175
S'62500000'
p10176
tp10177
aa(lp10178
(g52
S'170000000'
p10179
tp10180
aa(lp10181
(S'16'
p10182
S'9000000'
p10183
tp10184
aa(lp10185
(S'10'
p10186
S'1500000'
p10187
tp10188
a(g74
S'2750000'
p10189
tp10190
aa(lp10191
(g42
S'195000000'
p10192
tp10193
aa(lp10194
(g9
S'122000000'
p10195
tp10196
aa(lp10197
(S'10'
p10198
S'105250000'
p10199
tp10200
a(g42
S'201250000'
p10201
tp10202
aa(lp10203
(g2
S'125000000'
p10204
tp10205
aa(lp10206
(S'11'
p10207
S'7250000'
p10208
tp10209
aa(lp10210
(g15
S'76500000'
p10211
tp10212
aa(lp10213
(S'14'
p10214
S'50750000'
p10215
tp10216
aa(lp10217
(g5
S'26750000'
p10218
tp10219
aa(lp10220
(S'16'
p10221
S'62000000'
p10222
tp10223
aa(lp10224
(g74
S'54750000'
p10225
tp10226
aa(lp10227
(S'15'
p10228
S'46750000'
p10229
tp10230
aa(lp10231
(g593
S'29000000'
p10232
tp10233
aa(lp10234
(S'16'
p10235
S'70750000'
p10236
tp10237
aa(lp10238
(S'14'
p10239
S'68250000'
p10240
tp10241
aa(lp10242
(g52
S'150500000'
p10243
tp10244
aa(lp10245
(g15
S'34750000'
p10246
tp10247
aa(lp10248
(S'20'
p10249
S'36250000'
p10250
tp10251
aa(lp10252
(g136
S'250000'
p10253
tp10254
aa(lp10255
(S'11'
p10256
S'116250000'
p10257
tp10258
aa(lp10259
(g42
S'230750000'
p10260
tp10261
aa(lp10262
(g42
S'233000000'
p10263
tp10264
aa(lp10265
(g136
S'161750000'
p10266
tp10267
aa(lp10268
(g5
S'25250000'
p10269
tp10270
aa(lp10271
(g74
S'58500000'
p10272
tp10273
aa(lp10274
(g52
S'154250000'
p10275
tp10276
aa(lp10277
(S'10'
p10278
S'124000000'
p10279
tp10280
aa(lp10281
(g42
S'16500000'
p10282
tp10283
aa(lp10284
(g74
S'138250000'
p10285
tp10286
aa(lp10287
(S'11'
p10288
S'81250000'
p10289
tp10290
aa(lp10291
(g15
S'102500000'
p10292
tp10293
aa(lp10294
(g2
S'105750000'
p10295
tp10296
aa(lp10297
(S'10'
p10298
S'129750000'
p10299
tp10300
aa(lp10301
(g136
S'160000000'
p10302
tp10303
aa(lp10304
(S'11'
p10305
S'40000000'
p10306
tp10307
aa(lp10308
(g15
S'37250000'
p10309
tp10310
a(g15
S'37750000'
p10311
tp10312
aa(lp10313
(g593
S'135000000'
p10314
tp10315
aa(lp10316
(S'11'
p10317
S'71750000'
p10318
tp10319
aa(lp10320
(g52
S'112500000'
p10321
tp10322
aa(lp10323
(g74
S'137500000'
p10324
tp10325
aa(lp10326
(S'18'
p10327
S'27750000'
p10328
tp10329
aa(lp10330
(S'14'
p10331
S'75750000'
p10332
tp10333
aa(lp10334
(g5
S'165750000'
p10335
tp10336
aa(lp10337
(S'12'
p10338
S'50500000'
p10339
tp10340
aa(lp10341
(g42
S'12750000'
p10342
tp10343
aa(lp10344
(g74
S'142000000'
p10345
tp10346
aa(lp10347
(g52
S'68750000'
p10348
tp10349
aa(lp10350
(g5
S'120500000'
p10351
tp10352
aa(lp10353
(S'17'
p10354
S'2250000'
p10355
tp10356
aa(lp10357
(S'13'
p10358
S'90500000'
p10359
tp10360
aa(lp10361
(g74
S'117750000'
p10362
tp10363
aa(lp10364
(g52
S'189500000'
p10365
tp10366
aa(lp10367
(g5
S'138000000'
p10368
tp10369
aa(lp10370
(g2
S'82250000'
p10371
tp10372
aa(lp10373
(g593
S'184250000'
p10374
tp10375
aa(lp10376
(g2
S'34500000'
p10377
tp10378
aa(lp10379
(S'16'
p10380
S'10000000'
p10381
tp10382
aa(lp10383
(g15
S'119250000'
p10384
tp10385
aa(lp10386
(g42
S'80000000'
p10387
tp10388
aa(lp10389
(S'22'
p10390
S'24000000'
p10391
tp10392
aa(lp10393
(g136
S'95500000'
p10394
tp10395
aa(lp10396
(S'14'
p10397
S'30750000'
p10398
tp10399
aa(lp10400
(S'14'
p10401
S'105750000'
p10402
tp10403
aa(lp10404
(g5
S'27750000'
p10405
tp10406
aa(lp10407
(S'12'
p10408
S'12500000'
p10409
tp10410
aa(lp10411
(g42
S'82750000'
p10412
tp10413
aa(lp10414
(S'12'
p10415
S'124250000'
p10416
tp10417
aa(lp10418
(g136
S'165750000'
p10419
tp10420
aa(lp10421
(S'13'
p10422
S'64500000'
p10423
tp10424
aa(lp10425
(S'11'
p10426
S'46750000'
p10427
tp10428
aa(lp10429
(g5
S'173250000'
p10430
tp10431
aa(lp10432
(g2
S'75000000'
p10433
tp10434
aa(lp10435
(g42
S'108250000'
p10436
tp10437
aa(lp10438
(g74
S'6500000'
p10439
tp10440
aa(lp10441
(S'15'
p10442
S'98000000'
p10443
tp10444
aa(lp10445
(S'10'
p10446
S'104000000'
p10447
tp10448
aa(lp10449
(S'17'
p10450
S'18500000'
p10451
tp10452
aa(lp10453
(g136
S'52000000'
p10454
tp10455
aa(lp10456
(g52
S'178250000'
p10457
tp10458
aa(lp10459
(S'12'
p10460
S'64000000'
p10461
tp10462
aa(lp10463
(S'12'
p10464
S'70000000'
p10465
tp10466
aa(lp10467
(S'10'
p10468
S'750000'
p10469
tp10470
aa(lp10471
(g74
S'90000000'
p10472
tp10473
aa(lp10474
(g2
S'123500000'
p10475
tp10476
aa(lp10477
(S'14'
p10478
S'104000000'
p10479
tp10480
aa(lp10481
(g2
S'212750000'
p10482
tp10483
aa(lp10484
(g15
S'157000000'
p10485
tp10486
aa(lp10487
(g2
S'108000000'
p10488
tp10489
aa(lp10490
(g74
S'136500000'
p10491
tp10492
aa(lp10493
(S'11'
p10494
S'31250000'
p10495
tp10496
aa(lp10497
(g2
S'222250000'
p10498
tp10499
aa(lp10500
(S'21'
p10501
S'17750000'
p10502
tp10503
aa(lp10504
(g136
S'82000000'
p10505
tp10506
aa(lp10507
(g593
S'44250000'
p10508
tp10509
aa(lp10510
(g2
S'238500000'
p10511
tp10512
aa(lp10513
(S'20'
p10514
S'15750000'
p10515
tp10516
aa(lp10517
(S'16'
p10518
S'78750000'
p10519
tp10520
aa(lp10521
(g5
S'43250000'
p10522
tp10523
aa(lp10524
(g5
S'84250000'
p10525
tp10526
aa(lp10527
(g52
S'190500000'
p10528
tp10529
aa(lp10530
(S'13'
p10531
S'87250000'
p10532
tp10533
aa(lp10534
(S'11'
p10535
S'44500000'
p10536
tp10537
aa(lp10538
(g9
S'122750000'
p10539
tp10540
aa(lp10541
(g42
S'71500000'
p10542
tp10543
aa(lp10544
(g136
S'152250000'
p10545
tp10546
aa(lp10547
(g2
S'225250000'
p10548
tp10549
aa(lp10550
(S'10'
p10551
S'70750000'
p10552
tp10553
aa(lp10554
(S'20'
p10555
S'57500000'
p10556
tp10557
aa(lp10558
(g2
S'177500000'
p10559
tp10560
aa(lp10561
(g15
S'120250000'
p10562
tp10563
aa(lp10564
(S'11'
p10565
S'114750000'
p10566
tp10567
aa(lp10568
(g9
S'24000000'
p10569
tp10570
aa(lp10571
(g15
S'55000000'
p10572
tp10573
aa(lp10574
(g136
S'94500000'
p10575
tp10576
aa(lp10577
(S'15'
p10578
S'41250000'
p10579
tp10580
aa(lp10581
(S'11'
p10582
S'41250000'
p10583
tp10584
aa(lp10585
(g2
S'4250000'
p10586
tp10587
aa(lp10588
(S'12'
p10589
S'127500000'
p10590
tp10591
aa(lp10592
(g42
S'195750000'
p10593
tp10594
aa(lp10595
(g74
S'115000000'
p10596
tp10597
aa(lp10598
(g136
S'164750000'
p10599
tp10600
a(g5
S'166000000'
p10601
tp10602
aa(lp10603
(g593
S'159000000'
p10604
tp10605
aa(lp10606
(g15
S'132000000'
p10607
tp10608
aa(lp10609
(S'14'
p10610
S'66250000'
p10611
tp10612
aa(lp10613
(S'22'
p10614
S'27250000'
p10615
tp10616
aa(lp10617
(g593
S'7750000'
p10618
tp10619
aa(lp10620
(g15
S'36750000'
p10621
tp10622
aa(lp10623
(S'10'
p10624
S'108750000'
p10625
tp10626
aa(lp10627
(S'19'
p10628
S'6000000'
p10629
tp10630
aa(lp10631
(g5
S'128500000'
p10632
tp10633
aa(lp10634
(g42
S'149000000'
p10635
tp10636
aa(lp10637
(g2
S'80750000'
p10638
tp10639
aa(lp10640
(S'10'
p10641
S'128500000'
p10642
tp10643
aa(lp10644
(g5
S'23250000'
p10645
tp10646
aa(lp10647
(g52
S'101500000'
p10648
tp10649
aa(lp10650
(g52
S'28250000'
p10651
tp10652
aa(lp10653
(g2
S'186250000'
p10654
tp10655
aa(lp10656
(g9
S'32500000'
p10657
tp10658
aa(lp10659
(g15
S'48500000'
p10660
tp10661
aa(lp10662
(S'10'
p10663
S'31750000'
p10664
tp10665
aa(lp10666
(g136
S'102000000'
p10667
tp10668
aa(lp10669
(g136
S'42000000'
p10670
tp10671
aa(lp10672
(S'14'
p10673
S'31000000'
p10674
tp10675
aa(lp10676
(S'13'
p10677
S'79500000'
p10678
tp10679
aa(lp10680
(g2
S'195750000'
p10681
tp10682
aa(lp10683
(g52
S'178500000'
p10684
tp10685
aa(lp10686
(S'18'
p10687
S'11250000'
p10688
tp10689
aa(lp10690
(g15
S'6750000'
p10691
tp10692
aa(lp10693
(S'12'
p10694
S'52500000'
p10695
tp10696
aa(lp10697
(g593
S'159250000'
p10698
tp10699
aa(lp10700
(S'16'
p10701
S'71000000'
p10702
tp10703
aa(lp10704
(g5
S'30500000'
p10705
tp10706
aa(lp10707
(g593
S'132750000'
p10708
tp10709
aa(lp10710
(S'20'
p10711
S'14750000'
p10712
tp10713
aa(lp10714
(S'18'
p10715
S'60250000'
p10716
tp10717
aa(lp10718
(S'14'
p10719
S'43500000'
p10720
tp10721
aa(lp10722
(S'12'
p10723
S'74750000'
p10724
tp10725
aa(lp10726
(S'17'
p10727
S'61750000'
p10728
tp10729
aa(lp10730
(g74
S'63000000'
p10731
tp10732
aa(lp10733
(g2
S'32500000'
p10734
tp10735
aa(lp10736
(S'12'
p10737
S'99250000'
p10738
tp10739
aa(lp10740
(g74
S'12000000'
p10741
tp10742
aa(lp10743
(g9
S'25000000'
p10744
tp10745
aa(lp10746
(g2
S'215500000'
p10747
tp10748
aa(lp10749
(S'11'
p10750
S'10500000'
p10751
tp10752
aa(lp10753
(g2
S'202000000'
p10754
tp10755
aa(lp10756
(g9
S'44750000'
p10757
tp10758
aa(lp10759
(S'13'
p10760
S'44000000'
p10761
tp10762
aa(lp10763
(g593
S'64500000'
p10764
tp10765
aa(lp10766
(S'11'
p10767
S'26250000'
p10768
tp10769
aa(lp10770
(S'18'
p10771
S'28000000'
p10772
tp10773
aa(lp10774
(S'14'
p10775
S'103750000'
p10776
tp10777
aa(lp10778
(S'20'
p10779
S'7500000'
p10780
tp10781
aa(lp10782
(g136
S'163750000'
p10783
tp10784
aa(lp10785
(S'16'
p10786
S'9750000'
p10787
tp10788
aa(lp10789
(g42
S'10250000'
p10790
tp10791
aa(lp10792
(S'11'
p10793
S'39500000'
p10794
tp10795
aa(lp10796
(g52
S'144250000'
p10797
tp10798
aa(lp10799
(g593
S'58000000'
p10800
tp10801
aa(lp10802
(g136
S'69250000'
p10803
tp10804
aa(lp10805
(S'12'
p10806
S'125250000'
p10807
tp10808
aa(lp10809
(g15
S'10000000'
p10810
tp10811
aa(lp10812
(g2
S'184500000'
p10813
tp10814
aa(lp10815
(S'15'
p10816
S'33000000'
p10817
tp10818
aa.